Microchip Technology Inc, v1.26 (A)

Tool Name:
  /opt/microchip/xc16/v1.26/bin/bin/../bin/elf-ld

Command:
  -p24EP512GP202 \
  -o \
  dist/default/production/ForthEx.X.production.elf \
  -L/opt/microchip/xc16/v1.26/bin/bin/.. \
  -L/opt/microchip/xc16/v1.26/bin/bin/../../lib \
  -L/opt/microchip/xc16/v1.26/bin/bin/../../support/PIC24E/gld \
  -L/opt/microchip/xc16/v1.26/bin/bin/../../support/PIC24F/gld \
  -L/opt/microchip/xc16/v1.26/bin/bin/../../support/PIC24H/gld \
  -L/opt/microchip/xc16/v1.26/bin/bin/../../support/dsPIC30F/gld \
  -L/opt/microchip/xc16/v1.26/bin/bin/../../support/dsPIC33E/gld \
  -L/opt/microchip/xc16/v1.26/bin/bin/../../support/dsPIC33F/gld \
  build/default/production/font.o \
  build/default/production/mcu_config_bits.o \
  build/default/production/forthex.o \
  --no-local-stack \
  --defsym=__MPLAB_BUILD=1 \
  -Tp24EP512GP202.gld.00 \
  --stack=16 \
  --check-sections \
  --no-data-init \
  --pack-data \
  --no-handles \
  --isr \
  --no-gc-sections \
  --fill-upper=0 \
  --stackguard=0 \
  --no-force-link \
  --smart-io \
  -Map=dist/default/production/ForthEx.X.production.map \
  --report-mem \
  --memorysummary \
  dist/default/production/memoryfile.xml \
  -start-group \
  --library=lega-pic30-elf \
  --library=m-elf \
  --library=lega-c-elf \
  -end-group \


Optional library libp24EP512GP202.a not found
Archive member included because of file (symbol)

/opt/microchip/xc16/v1.26/bin/bin/../../lib/liblega-pic30-elf.a(crt1_extendedep.o)
                              (__resetALT)


Selected CodeGuard Options:
  FGS:GWRP:OFF
  FGS:GCP:OFF

CodeGuard FLASH Memory:
  boot    (none)
  secure  (none)
  general 0x200 to 0x557ea

CodeGuard RAM Memory:
  general 0x1000 to 0xcfff
  secure  (none)
  boot    (none)


xc16-ld 1.26 (A)

Program Memory  [Origin = 0x200, Length = 0x555ec]

section                    address   length (PC units)   length (bytes) (dec)
-------                    -------   -----------------   --------------------
.start.text                  0x200                0x18            0x24  (36)
.intr                        0x218               0x168           0x21c  (540)
.sysdict                     0x380              0x1342          0x1ce3  (7395)
.font.const                 0x16c2               0x400           0x600  (1536)
.ver_str.const              0x1ac2                 0xe            0x15  (21)
.forth_code.text            0x1ad0               0xc3e          0x125d  (4701)
.text                       0x270e                0x96            0xe1  (225)
.link                       0x7ffe                 0x2             0x3  (3)

                 Total program memory used (bytes):         0x3879  (14457) 2%


Ivt Memory  [Origin = 0x4, Length = 0x1fc]

section                    address   length (PC units)   length (bytes) (dec)
-------                    -------   -----------------   --------------------
.ivt._MathError                0xc                 0x2             0x3  (3)
.ivt._T1Interrupt             0x1a                 0x2             0x3  (3)
.ivt._OC2Interrupt            0x20                 0x2             0x3  (3)
.ivt._T2Interrupt             0x22                 0x2             0x3  (3)
.ivt._U1RXInterrupt           0x2a                 0x2             0x3  (3)
.ivt._U1TXInterrupt           0x2c                 0x2             0x3  (3)
.ivt._CNInterrupt             0x3a                 0x2             0x3  (3)
.ivt._INT1Interrupt           0x3c                 0x2             0x3  (3)
.ivt._U2RXInterrupt           0x50                 0x2             0x3  (3)


Data Memory  [Origin = 0x1000, Length = 0xc000]

section                    address      alignment gaps    total length  (dec)
-------                    -------      --------------    -------------------
.return.stack.bss           0x1000                   0            0x80  (128)
.param.stack.bss            0x1080                   0            0x40  (64)
.tvout.bss                  0x10c0                   0           0x60a  (1546)
.buffers.bss                0x16ca                   0            0xa0  (160)
.serial.bss                 0x176a                   0            0x28  (40)
.keyboard.bss               0x1792                   0            0x24  (36)
.user_vars.bss              0x17b6                   0            0x1c  (28)
.hardware.bss               0x17d2                   0            0x12  (18)
.sound.bss                  0x17e4                   0             0x2  (2)
.user_dict                  0x1900                   0          0xa700  (42752)

                 Total data memory used (bytes):         0xaee6  (44774) 91%


Dynamic Memory Usage

region                     address                      maximum length  (dec)
------                     -------                      ---------------------
heap                             0                                   0  (0)
stack                       0x1000                                0x80  (128)

                 Maximum dynamic memory (bytes):           0x80  (128)


External Symbols in Data Memory (by address):

                    0x1000                  rstack
                    0x1080                  pstack
                    0x10c3                  video_on
                    0x10c4                  xpos
                    0x10c5                  ypos
                    0x10c6                  cursor_dly
                    0x10c8                  cursor_sema
                    0x10c9                  fcursor
                    0x10ca                  _video_buffer
                    0x16ca                  tib
                    0x171a                  pad
                    0x1792                  kbd_queue
                    0x17b2                  kbd_head
                    0x17b6                  _TIB
                    0x17b6                  _USER_VARS
                    0x17b8                  _PAD
                    0x17ba                  _TICKSOURCE
                    0x17bc                  _CNTSOURCE
                    0x17be                  _DP
                    0x17c0                  _STATE
                    0x17c2                  _BASE
                    0x17c4                  _TOIN
                    0x17c6                  _S0
                    0x17c8                  _R0
                    0x17ca                  _HP
                    0x17cc                  _LATEST
                    0x17ce                  _SYSLATEST
                    0x17de                  systicks
                    0x17e0                  seed
                    0x17e4                  tone_len
                    0x1900                  _user_dict

External Symbols in Data Memory (by name):

                    0x17c2                  _BASE
                    0x17bc                  _CNTSOURCE
                    0x17be                  _DP
                    0x17ca                  _HP
                    0x17cc                  _LATEST
                    0x17b8                  _PAD
                    0x17c8                  _R0
                    0x17c6                  _S0
                    0x17c0                  _STATE
                    0x17ce                  _SYSLATEST
                    0x17b6                  _TIB
                    0x17ba                  _TICKSOURCE
                    0x17c4                  _TOIN
                    0x17b6                  _USER_VARS
                    0x1900                  _user_dict
                    0x10ca                  _video_buffer
                    0x10c6                  cursor_dly
                    0x10c8                  cursor_sema
                    0x10c9                  fcursor
                    0x17b2                  kbd_head
                    0x1792                  kbd_queue
                    0x171a                  pad
                    0x1080                  pstack
                    0x1000                  rstack
                    0x17e0                  seed
                    0x17de                  systicks
                    0x16ca                  tib
                    0x17e4                  tone_len
                    0x10c3                  video_on
                    0x10c4                  xpos
                    0x10c5                  ypos

External Symbols in Program Memory (by address):

                  0x000200                  __reset
                  0x000218                  __T2Interrupt
                  0x000286                  __OC2Interrupt
                  0x0002ea                  __U1RXInterrupt
                  0x00030e                  __U1TXInterrupt
                  0x000332                  __CNInterrupt
                  0x00033c                  __U2RXInterrupt
                  0x000358                  __MathError
                  0x00035a                  __DefaultInterrupt
                  0x00035c                  __T1Interrupt
                  0x00037e                  __INT1Interrupt
                  0x000380                  name_EXIT
                  0x000388                  EXIT
                  0x00038a                  lfa_LIT
                  0x000392                  LIT
                  0x000394                  lfa_CLIT
                  0x00039e                  CLIT
                  0x0003a0                  lfa_BRANCH
                  0x0003ac                  BRANCH
                  0x0003ae                  lfa_TBRANCH
                  0x0003ba                  TBRANCH
                  0x0003bc                  lfa_ZBRANCH
                  0x0003c8                  ZBRANCH
                  0x0003ca                  lfa_DODO
                  0x0003d2                  DODO
                  0x0003d4                  lfa_DOLOOP
                  0x0003de                  DOLOOP
                  0x0003e0                  lfa_IPFETCH
                  0x0003e6                  IPFETCH
                  0x0003e8                  lfa_IPSTORE
                  0x0003ee                  IPSTORE
                  0x0003f0                  lfa_REBOOT
                  0x0003fa                  REBOOT
                  0x0003fc                  lfa_EXECUTE
                  0x000406                  EXECUTE
                  0x000408                  lfa_FEXEC
                  0x000414                  FEXEC
                  0x000416                  lfa_FETCH
                  0x00041a                  FETCH
                  0x00041c                  lfa_CFETCH
                  0x000422                  CFETCH
                  0x000424                  lfa_TWOFETCH
                  0x00042a                  TWOFETCH
                  0x00042c                  lfa_STORE
                  0x000430                  STORE
                  0x000432                  lfa_CSTORE
                  0x000438                  CSTORE
                  0x00043a                  lfa_TWOSTORE
                  0x000440                  TWOSTORE
                  0x000442                  lfa_DOI
                  0x000446                  DOI
                  0x000448                  lfa_DOJ
                  0x00044c                  DOJ
                  0x00044e                  lfa_UNLOOP
                  0x000458                  UNLOOP
                  0x00045a                  lfa_DUP
                  0x000460                  DUP
                  0x000462                  lfa_TWODUP
                  0x00046a                  TWODUP
                  0x00046c                  lfa_QDUP
                  0x000474                  QDUP
                  0x000476                  lfa_DROP
                  0x00047e                  DROP
                  0x000480                  lfa_TWODROP
                  0x000488                  TWODROP
                  0x00048a                  lfa_SWAP
                  0x000492                  SWAP
                  0x000494                  lfa_TWOSWAP
                  0x00049c                  TWOSWAP
                  0x00049e                  lfa_ROT
                  0x0004a4                  ROT
                  0x0004a6                  lfa_NROT
                  0x0004ae                  NROT
                  0x0004b0                  lfa_OVER
                  0x0004b8                  OVER
                  0x0004ba                  lfa_TWOOVER
                  0x0004c2                  TWOOVER
                  0x0004c4                  lfa_NIP
                  0x0004ca                  NIP
                  0x0004cc                  lfa_TOR
                  0x0004d2                  TOR
                  0x0004d4                  lfa_RFROM
                  0x0004da                  RFROM
                  0x0004dc                  lfa_RFETCH
                  0x0004e2                  RFETCH
                  0x0004e4                  lfa_SPFETCH
                  0x0004ea                  SPFETCH
                  0x0004ec                  lfa_SPSTORE
                  0x0004f2                  SPSTORE
                  0x0004f4                  lfa_RPFETCH
                  0x0004fa                  RPFETCH
                  0x0004fc                  lfa_RPSTORE
                  0x000502                  RPSTORE
                  0x000504                  lfa_TUCK
                  0x00050c                  TUCK
                  0x00050e                  lfa_DEPTH
                  0x000516                  DEPTH
                  0x000518                  lfa_PICK
                  0x000520                  PICK
                  0x000522                  lfa_HEX
                  0x000528                  HEX
                  0x000534                  lfa_DECIMAL
                  0x00053e                  DECIMAL
                  0x00054a                  lfa_PLUS
                  0x00054e                  PLUS
                  0x000550                  lfa_MINUS
                  0x000554                  MINUS
                  0x000556                  lfa_ONEPLUS
                  0x00055c                  ONEPLUS
                  0x00055e                  lfa_TWOPLUS
                  0x000564                  TWOPLUS
                  0x000566                  lfa_ONEMINUS
                  0x00056c                  ONEMINUS
                  0x00056e                  lfa_TWOMINUS
                  0x000574                  TWOMINUS
                  0x000576                  lfa_TWOSTAR
                  0x00057c                  TWOSTAR
                  0x00057e                  lfa_TWOSLASH
                  0x000584                  TWOSLASH
                  0x000586                  lfa_LSHIFT
                  0x000590                  LSHIFT
                  0x000592                  lfa_RSHIFT
                  0x00059c                  RSHIFT
                  0x00059e                  lfa_PLUSSTORE
                  0x0005a4                  PLUSSTORE
                  0x0005a6                  lfa_MPLUS
                  0x0005ac                  MPLUS
                  0x0005ae                  lfa_STAR
                  0x0005b2                  STAR
                  0x0005b4                  lfa_UMSTAR
                  0x0005ba                  UMSTAR
                  0x0005bc                  lfa_UDSTAR
                  0x0005c2                  UDSTAR
                  0x0005d8                  lfa_DIVIDE
                  0x0005dc                  DIVIDE
                  0x0005de                  lfa_STARSLASH
                  0x0005e4                  STARSLASH
                  0x0005e6                  lfa_STARSLASHMOD
                  0x0005ee                  STARSLASHMOD
                  0x0005f0                  lfa_DIVMOD
                  0x0005f8                  DIVMOD
                  0x0005fa                  lfa_UMSLASHMOD
                  0x000604                  UMSLASHMOD
                  0x000606                  lfa_MAX
                  0x00060c                  MAX
                  0x00060e                  lfa_MIN
                  0x000614                  MIN
                  0x000616                  lfa_WITHIN
                  0x000620                  WITHIN
                  0x000622                  lfa_EVEN
                  0x00062a                  EVEN
                  0x00062c                  lfa_ODD
                  0x000632                  ODD
                  0x000634                  lfa_ABS
                  0x00063a                  ABS
                  0x00063c                  lfa_AND
                  0x000642                  AND
                  0x000644                  lfa_OR
                  0x00064a                  OR
                  0x00064c                  lfa_XOR
                  0x000652                  XOR
                  0x000654                  lfa_INVERT
                  0x00065e                  INVERT
                  0x000660                  lfa_NEGATE
                  0x00066a                  NEGATE
                  0x00066c                  lfa_ZEROEQ
                  0x000672                  ZEROEQ
                  0x000674                  lfa_ZEROLT
                  0x00067a                  ZEROLT
                  0x00067c                  lfa_ZEROGT
                  0x000682                  ZEROGT
                  0x000684                  lfa_EQUAL
                  0x000688                  EQUAL
                  0x00068a                  lfa_NOTEQ
                  0x000690                  NOTEQ
                  0x000692                  lfa_LESS
                  0x000696                  LESS
                  0x000698                  lfa_GREATER
                  0x00069c                  GREATER
                  0x00069e                  lfa_ULESS
                  0x0006a4                  ULESS
                  0x0006a6                  lfa_UGREATER
                  0x0006ac                  UGREATER
                  0x0006ae                  lfa_CELL
                  0x0006b6                  CELL
                  0x0006b8                  lfa_CELLPLUS
                  0x0006c0                  CELLPLUS
                  0x0006c2                  lfa_CELLS
                  0x0006ca                  CELLS
                  0x0006cc                  lfa_ALIGNED
                  0x0006d6                  ALIGNED
                  0x0006d8                  lfa_TOCHAR
                  0x0006e0                  TOCHAR
                  0x0006e2                  lfa_HERE
                  0x0006ea                  HERE
                  0x0006f2                  lfa_MOVE
                  0x0006fa                  MOVE
                  0x0006fc                  lfa_CMOVE
                  0x000704                  CMOVE
                  0x000706                  lfa_SCAN
                  0x00070e                  SCAN
                  0x000710                  lfa_FILL
                  0x000718                  FILL
                  0x00071a                  lfa_CFILL
                  0x000722                  CFILL
                  0x000724                  lfa_MINUSTRAILING
                  0x000730                  MINUSTRAILING
                  0x000732                  lfa_PACKS
                  0x00073a                  PACKS
                  0x000772                  lfa_STATE
                  0x00077a                  STATE
                  0x00077e                  lfa_DP
                  0x000784                  DP
                  0x000788                  lfa_BASE
                  0x000790                  BASE
                  0x000794                  lfa_SYSLATEST
                  0x0007a0                  SYSLATEST
                  0x0007a4                  lfa_LATEST
                  0x0007ae                  LATEST
                  0x0007b2                  lfa_R0
                  0x0007b8                  R0
                  0x0007bc                  lfa_S0
                  0x0007c2                  S0
                  0x0007c6                  lfa_PAD
                  0x0007cc                  PAD
                  0x0007d0                  lfa_TIB
                  0x0007d6                  TIB
                  0x0007da                  lfa_TOIN
                  0x0007e0                  TOIN
                  0x0007e4                  lfa_HP
                  0x0007ea                  HP
                  0x0007ee                  lfa_TICKSOURCE
                  0x0007f8                  TICKSOURCE
                  0x0007fc                  lfa_CNTSOURCE
                  0x000806                  CNTSOURCE
                  0x00080a                  lfa_LAST
                  0x000812                  LAST
                  0x000816                  lfa_VERSION
                  0x000820                  VERSION
                  0x000822                  lfa_RAMEND
                  0x00082c                  RAMEND
                  0x00082e                  lfa_IMMED
                  0x000836                  IMMED
                  0x000838                  lfa_HIDDEN
                  0x000842                  HIDDEN
                  0x000844                  lfa_LENMASK
                  0x00084e                  LENMASK
                  0x000850                  lfa_BL
                  0x000856                  BL
                  0x000858                  lfa_TIBSIZE
                  0x000862                  TIBSIZE
                  0x000864                  lfa_PADSIZE
                  0x00086e                  PADSIZE
                  0x000870                  lfa_ULIMIT
                  0x00087a                  ULIMIT
                  0x00087c                  lfa_DOCOL
                  0x000884                  DOCOL
                  0x000886                  lfa_TSOURCE
                  0x000890                  TSOURCE
                  0x000892                  lfa_SRCSTORE
                  0x00089c                  SRCSTORE
                  0x00089e                  lfa_BASEQ
                  0x0008a6                  BASEQ
                  0x0008f0                  lfa_NEGQ
                  0x0008f8                  NEGQ
                  0x000914                  lfa_NUMBERQ
                  0x00091e                  NUMBERQ
                  0x000984                  lfa_DIGITQ
                  0x00098e                  DIGITQ
                  0x0009d6                  lfa_TONUMBER
                  0x0009e0                  TONUMBER
                  0x000a14                  lfa_QSIGN
                  0x000a1c                  QSIGN
                  0x000a48                  lfa_QNUMBER
                  0x000a52                  QNUMBER
                  0x000a8a                  lfa_WORDS
                  0x000a92                  WORDS
                  0x000ad4                  lfa_UPPER
                  0x000adc                  UPPER
                  0x000ade                  lfa_SKIP
                  0x000ae6                  SKIP
                  0x000ae8                  lfa_ADRTOIN
                  0x000af2                  ADRTOIN
                  0x000b0a                  lfa_SLASHSTRING
                  0x000b14                  SLASHSTRING
                  0x000b24                  lfa_PARSE
                  0x000b2c                  PARSE
                  0x000b52                  lfa_WORD
                  0x000b5a                  WORD
                  0x000b82                  lfa_FIND
                  0x000b8a                  FIND
                  0x000b8c                  lfa_ACCEPT
                  0x000b96                  ACCEPT
                  0x000c00                  lfa_COUNT
                  0x000c08                  COUNT
                  0x000c16                  lfa_ERROR
                  0x000c1e                  ERROR
                  0x000c40                  lfa_TOCOUNTED
                  0x000c4c                  TOCOUNTED
                  0x000c5a                  lfa_COMMA
                  0x000c5e                  COMMA
                  0x000c72                  lfa_CCOMMA
                  0x000c78                  CCOMMA
                  0x000c8a                  lfa_INTERPRET
                  0x000c96                  INTERPRET
                  0x000cee                  lfa_EVAL
                  0x000cfa                  EVAL
                  0x000d18                  lfa_OK
                  0x000d1e                  OK
                  0x000d44                  lfa_ABORT
                  0x000d4c                  ABORT
                  0x000d56                  lfa_ABORTQ
                  0x000d60                  ABORTQ
                  0x000d92                  lfa_QUIT
                  0x000d9a                  QUIT
                  0x000dca                  lfa_NFATOLFA
                  0x000dd4                  NFATOLFA
                  0x000dde                  lfa_NFATOCFA
                  0x000de8                  NFATOCFA
                  0x000dfc                  lfa_CFATONFA
                  0x000e06                  CFATONFA
                  0x000e76                  lfa_IMMEDIATE
                  0x000e82                  IMMEDIATE
                  0x000ea4                  lfa_HIDE
                  0x000eac                  HIDE
                  0x000ebe                  lfa_ALLOT
                  0x000ec6                  ALLOT
                  0x000ece                  lfa_TICK
                  0x000ed2                  TICK
                  0x000f16                  lfa_ICOMPILE
                  0x000f22                  ICOMPILE
                  0x000f2a                  lfa_QCOMPILE
                  0x000f36                  QCOMPILE
                  0x000f58                  lfa_COMMAXT
                  0x000f64                  COMMAXT
                  0x000f6a                  lfa_MARKADDR
                  0x000f72                  MARKADDR
                  0x000f7a                  lfa_BACKJUMP
                  0x000f86                  BACKJUMP
                  0x000f92                  lfa_MARKSLOT
                  0x000f9a                  MARKSLOT
                  0x000fa8                  lfa_FOREJUMP
                  0x000fb4                  FOREJUMP
                  0x000fc4                  lfa_CREATE
                  0x000fce                  CREATE
                  0x000fd6                  lfa_LBRACKET
                  0x000fda                  LBRACKET
                  0x000fe6                  lfa_RBRACKET
                  0x000fea                  RBRACKET
                  0x000ff6                  lfa_BRCOMPILE
                  0x001002                  BRCOMPILE
                  0x00100c                  lfa_COMPILECFA
                  0x001016                  COMPILECFA
                  0x001028                  lfa_POSTONE
                  0x001034                  POSTONE
                  0x001060                  lfa_LITERAL
                  0x00106a                  LITERAL
                  0x001076                  lfa_DOSTR
                  0x00107c                  DOSTR
                  0x001092                  lfa_STRQUOTP
                  0x001098                  STRQUOTP
                  0x0010a0                  lfa_DOTQP
                  0x0010a6                  DOTQP
                  0x0010b0                  lfa_STRCOMPILE
                  0x0010b6                  STRCOMPILE
                  0x0010ca                  lfa_SQUOTE
                  0x0010d0                  SQUOTE
                  0x0010dc                  lfa_DOTQUOTE
                  0x0010e2                  DOTQUOTE
                  0x0010ee                  lfa_RECURSE
                  0x0010f8                  RECURSE
                  0x001104                  lfa_BEGIN
                  0x00110c                  BEGIN
                  0x001114                  lfa_AGAIN
                  0x00111c                  AGAIN
                  0x001128                  lfa_UNTIL
                  0x001130                  UNTIL
                  0x00113c                  lfa_AHEAD
                  0x001144                  AHEAD
                  0x001150                  lfa_IIF
                  0x001156                  IIF
                  0x001162                  lfa_THEN
                  0x00116a                  THEN
                  0x001172                  lfa_ELSE
                  0x00117a                  ELSE
                  0x00118a                  lfa_WHILE
                  0x001192                  WHILE
                  0x001194                  lfa_COLON
                  0x001198                  COLON
                  0x00119c                  lfa_INFLOOP
                  0x0011a6                  INFLOOP
                  0x0011a8                  lfa_DOTS
                  0x0011ae                  DOTS
                  0x0011d8                  lfa_HDUMP
                  0x0011e0                  HDUMP
                  0x001236                  lfa_SEE
                  0x00123c                  SEE
                  0x00127a                  lfa_SEELIST
                  0x001284                  SEELIST
                  0x0012ee                  TVOUT_INIT
                  0x0012f0                  lfa_VIDON
                  0x0012f8                  VIDON
                  0x0012fa                  lfa_CURENBL
                  0x001304                  CURENBL
                  0x001306                  lfa_CLS
                  0x00130c                  CLS
                  0x00130e                  lfa_SCRLUP
                  0x001318                  SCRLUP
                  0x00131a                  lfa_SCRLDN
                  0x001324                  SCRLDN
                  0x001326                  lfa_GETX
                  0x00132e                  GETX
                  0x001330                  lfa_GETY
                  0x001338                  GETY
                  0x00133a                  lfa_SETX
                  0x001342                  SETX
                  0x001344                  lfa_SETY
                  0x00134c                  SETY
                  0x00134e                  lfa_CURPOS
                  0x001358                  CURPOS
                  0x001360                  lfa_LEFT
                  0x001368                  LEFT
                  0x00136a                  lfa_RIGHT
                  0x001372                  RIGHT
                  0x001374                  lfa_TGLCHAR
                  0x00137e                  TGLCHAR
                  0x001380                  lfa_EMIT
                  0x001388                  EMIT
                  0x00138a                  lfa_CR
                  0x001390                  CR
                  0x001392                  lfa_SPACE
                  0x00139a                  SPACE
                  0x00139c                  lfa_SPACES
                  0x0013a6                  SPACES
                  0x0013c6                  lfa_CLRLN
                  0x0013ce                  CLRLN
                  0x0013d0                  lfa_TYPE
                  0x0013d8                  TYPE
                  0x0013fa                  lfa_DELETE
                  0x001404                  DELETE
                  0x00140c                  lfa_BACKCHAR
                  0x001418                  BACKCHAR
                  0x001422                  lfa_DIGIT
                  0x00142a                  DIGIT
                  0x001444                  lfa_EXTRACT
                  0x00144e                  EXTRACT
                  0x00145e                  lfa_LTSHARP
                  0x001464                  LTSHARP
                  0x001474                  lfa_HOLD
                  0x00147c                  HOLD
                  0x00148e                  lfa_SHARP
                  0x001492                  SHARP
                  0x00149e                  lfa_SHARPS
                  0x0014a4                  SHARPS
                  0x0014b0                  lfa_SIGN
                  0x0014b8                  SIGN
                  0x0014c8                  lfa_SHARPGT
                  0x0014ce                  SHARPGT
                  0x0014e4                  lfa_STR
                  0x0014ea                  STR
                  0x0014fe                  lfa_DOTR
                  0x001504                  DOTR
                  0x001516                  lfa_UDOTR
                  0x00151c                  UDOTR
                  0x001532                  lfa_UDOT
                  0x001538                  UDOT
                  0x001546                  lfa_DOT
                  0x00154a                  DOT
                  0x001562                  lfa_QUESTION
                  0x001566                  QUESTION
                  0x001574                  lfa_CQUESTION
                  0x00157a                  CQUESTION
                  0x001582                  lfa_CHARS
                  0x00158a                  CHARS
                  0x0015a0                  SERIAL_INIT
                  0x0015a2                  lfa_BAUD
                  0x0015aa                  BAUD
                  0x0015ac                  lfa_SEMIT
                  0x0015b4                  SEMIT
                  0x0015b6                  lfa_SGET
                  0x0015be                  SGET
                  0x0015c0                  SOUND_INIT
                  0x0015c2                  lfa_TONE
                  0x0015ca                  TONE
                  0x0015cc                  STORE_INIT
                  0x0015ce                  lfa_SDCINIT
                  0x0015d8                  SDCINIT
                  0x0015da                  lfa_RSTORE
                  0x0015e4                  RSTORE
                  0x0015e6                  lfa_RLOAD
                  0x0015ee                  RLOAD
                  0x0015f0                  lfa_ESTORE
                  0x0015fa                  ESTORE
                  0x0015fc                  lfa_ELOAD
                  0x001604                  ELOAD
                  0x001606                  KBD_INIT
                  0x001608                  KBD_RESET
                  0x00160a                  KEYFILTER
                  0x00160c                  lfa_GETKEY
                  0x001616                  GETKEY
                  0x001618                  lfa_QKEY
                  0x001620                  QKEY
                  0x001632                  lfa_KEY
                  0x001638                  KEY
                  0x001646                  lfa_NUFQ
                  0x00164e                  NUFQ
                  0x001664                  HARDWARE_INIT
                  0x00167c                  TICKS_INIT
                  0x00167e                  SET_CLOCK
                  0x001680                  CLR_RAM
                  0x001682                  IO_LOCK
                  0x001684                  VARS_INIT
                  0x001686                  lfa_TICKS
                  0x00168e                  TICKS
                  0x001690                  lfa_USEC
                  0x001698                  USEC
                  0x00169a                  lfa_MSEC
                  0x0016a2                  MSEC
                  0x0016a4                  lfa_LFSR
                  0x0016ac                  LFSR
                  0x0016ae                  lfa_RAND
                  0x0016b6                  RAND
                  0x0016b8                  lfa_SRAND
                  0x0016c0                  SRAND
                  0x0016c2                  _font
                  0x001ac2                  _version
                  0x001ad0                  ENTER
                  0x001ada                  DOUSER
                  0x001ae6                  DOALIAS
                  0x001aea                  code_EXIT
                  0x001af2                  code_LIT
                  0x001afc                  code_CLIT
                  0x001b08                  code_BRANCH
                  0x001b10                  code_TBRANCH
                  0x001b1e                  code_ZBRANCH
                  0x001b2c                  code_DODO
                  0x001b3e                  code_DOLOOP
                  0x001b58                  code_IPFETCH
                  0x001b62                  code_IPSTORE
                  0x001b6c                  code_REBOOT
                  0x001b6e                  code_EXECUTE
                  0x001b76                  code_FEXEC
                  0x001b88                  code_FETCH
                  0x001b90                  code_CFETCH
                  0x001b9a                  code_TWOFETCH
                  0x001ba8                  code_STORE
                  0x001bb2                  code_CSTORE
                  0x001bbe                  code_TWOSTORE
                  0x001bcc                  code_DOI
                  0x001bd6                  code_DOJ
                  0x001be0                  code_UNLOOP
                  0x001bea                  code_DUP
                  0x001bf2                  code_TWODUP
                  0x001bfe                  code_QDUP
                  0x001c0a                  code_DROP
                  0x001c12                  code_TWODROP
                  0x001c1c                  code_SWAP
                  0x001c28                  code_TWOSWAP
                  0x001c3c                  code_ROT
                  0x001c4e                  code_NROT
                  0x001c5e                  code_OVER
                  0x001c68                  code_TWOOVER
                  0x001c76                  code_NIP
                  0x001c7e                  code_TOR
                  0x001c88                  code_RFROM
                  0x001c92                  code_RFETCH
                  0x001c9c                  code_SPFETCH
                  0x001ca8                  code_SPSTORE
                  0x001cb0                  code_RPFETCH
                  0x001cba                  code_RPSTORE
                  0x001cc4                  code_TUCK
                  0x001cd0                  code_DEPTH
                  0x001cde                  code_PICK
                  0x001cec                  code_PLUS
                  0x001cf4                  code_MINUS
                  0x001cfe                  code_ONEPLUS
                  0x001d06                  code_TWOPLUS
                  0x001d0e                  code_ONEMINUS
                  0x001d16                  code_TWOMINUS
                  0x001d1e                  code_TWOSTAR
                  0x001d26                  code_TWOSLASH
                  0x001d2e                  code_LSHIFT
                  0x001d3e                  code_RSHIFT
                  0x001d4e                  code_PLUSSTORE
                  0x001d5c                  code_MPLUS
                  0x001d6c                  code_STAR
                  0x001d7a                  code_UMSTAR
                  0x001d86                  code_DIVIDE
                  0x001d94                  code_STARSLASH
                  0x001da6                  code_STARSLASHMOD
                  0x001dba                  code_DIVMOD
                  0x001dca                  code_UMSLASHMOD
                  0x001ddc                  code_MAX
                  0x001dea                  code_MIN
                  0x001df8                  code_WITHIN
                  0x001e10                  code_EVEN
                  0x001e1e                  code_ODD
                  0x001e2c                  code_ABS
                  0x001e36                  code_AND
                  0x001e3e                  code_OR
                  0x001e46                  code_XOR
                  0x001e4e                  code_INVERT
                  0x001e56                  code_NEGATE
                  0x001e5e                  code_ZEROEQ
                  0x001e68                  code_ZEROLT
                  0x001e74                  code_ZEROGT
                  0x001e7e                  code_EQUAL
                  0x001e8e                  code_NOTEQ
                  0x001e9e                  code_LESS
                  0x001eae                  code_GREATER
                  0x001ebe                  code_ULESS
                  0x001ece                  code_UGREATER
                  0x001ede                  code_CELL
                  0x001ee8                  code_CELLPLUS
                  0x001ef0                  code_CELLS
                  0x001efa                  code_ALIGNED
                  0x001f04                  code_TOCHAR
                  0x001f12                  code_MOVE
                  0x001f2e                  code_CMOVE
                  0x001f4a                  code_SCAN
                  0x001f66                  code_FILL
                  0x001f7c                  code_CFILL
                  0x001f92                  code_MINUSTRAILING
                  0x001fa8                  code_VERSION
                  0x001fb2                  code_RAMEND
                  0x001fbc                  code_IMMED
                  0x001fc6                  code_HIDDEN
                  0x001fd0                  code_LENMASK
                  0x001fda                  code_BL
                  0x001fe4                  code_TIBSIZE
                  0x001fee                  code_PADSIZE
                  0x001ff8                  code_ULIMIT
                  0x002002                  code_DOCOL
                  0x00200c                  code_TSOURCE
                  0x00201a                  code_SRCSTORE
                  0x002028                  code_UPPER
                  0x00204a                  code_SKIP
                  0x002066                  code_FIND
                  0x0020ac                  code_INFLOOP
                  0x0020ae                  code_TVOUT_INIT
                  0x002112                  code_VIDON
                  0x00211e                  code_CURENBL
                  0x00213a                  code_CLS
                  0x002150                  code_SCRLUP
                  0x00215a                  code_SCRLDN
                  0x002164                  code_GETX
                  0x002172                  code_GETY
                  0x002180                  code_SETX
                  0x00219e                  code_SETY
                  0x0021bc                  code_LEFT
                  0x0021e2                  code_RIGHT
                  0x00220c                  code_TGLCHAR
                  0x002222                  code_EMIT
                  0x002242                  code_CR
                  0x002254                  code_SPACE
                  0x00225a                  code_CLRLN
                  0x002282                  code_SERIAL_INIT
                  0x0022bc                  code_BAUD
                  0x0022dc                  code_SEMIT
                  0x00230a                  code_SGET
                  0x00232a                  code_SOUND_INIT
                  0x002346                  code_TONE
                  0x00235c                  code_STORE_INIT
                  0x002484                  code_SDCINIT
                  0x0024ac                  code_RSTORE
                  0x0024de                  code_RLOAD
                  0x002510                  code_ESTORE
                  0x002558                  code_ELOAD
                  0x002590                  code_KBD_INIT
                  0x0025c0                  code_KBD_RESET
                  0x0025da                  code_KEYFILTER
                  0x0025f4                  code_GETKEY
                  0x002616                  code_TICKS_INIT
                  0x002632                  code_SET_CLOCK
                  0x002642                  code_CLR_RAM
                  0x00264e                  code_IO_LOCK
                  0x002656                  code_VARS_INIT
                  0x002688                  code_TICKS
                  0x002692                  code_USEC
                  0x0026a4                  code_MSEC
                  0x0026b4                  code_LFSR
                  0x0026cc                  code_RAND
                  0x0026fe                  code_SRAND
                  0x00270e                  cursor_blink
                  0x00271a                  toggle_char
                  0x002730                  cursor_enable
                  0x002740                  cursor_disable
                  0x00274e                  scroll_up
                  0x002774                  scroll_down
                  0x002796                  _cold
                  0x007ffe                  _sys_latest
                  0x0557fa                  __FGS.sec

External Symbols in Program Memory (by name):

                  0x000d4c                  ABORT
                  0x000d60                  ABORTQ
                  0x00063a                  ABS
                  0x000b96                  ACCEPT
                  0x000af2                  ADRTOIN
                  0x00111c                  AGAIN
                  0x001144                  AHEAD
                  0x0006d6                  ALIGNED
                  0x000ec6                  ALLOT
                  0x000642                  AND
                  0x001418                  BACKCHAR
                  0x000f86                  BACKJUMP
                  0x000790                  BASE
                  0x0008a6                  BASEQ
                  0x0015aa                  BAUD
                  0x00110c                  BEGIN
                  0x000856                  BL
                  0x0003ac                  BRANCH
                  0x001002                  BRCOMPILE
                  0x000c78                  CCOMMA
                  0x0006b6                  CELL
                  0x0006c0                  CELLPLUS
                  0x0006ca                  CELLS
                  0x000e06                  CFATONFA
                  0x000422                  CFETCH
                  0x000722                  CFILL
                  0x00158a                  CHARS
                  0x00039e                  CLIT
                  0x0013ce                  CLRLN
                  0x001680                  CLR_RAM
                  0x00130c                  CLS
                  0x000704                  CMOVE
                  0x000806                  CNTSOURCE
                  0x001198                  COLON
                  0x000c5e                  COMMA
                  0x000f64                  COMMAXT
                  0x001016                  COMPILECFA
                  0x000c08                  COUNT
                  0x00157a                  CQUESTION
                  0x001390                  CR
                  0x000fce                  CREATE
                  0x000438                  CSTORE
                  0x001304                  CURENBL
                  0x001358                  CURPOS
                  0x00053e                  DECIMAL
                  0x001404                  DELETE
                  0x000516                  DEPTH
                  0x00142a                  DIGIT
                  0x00098e                  DIGITQ
                  0x0005dc                  DIVIDE
                  0x0005f8                  DIVMOD
                  0x001ae6                  DOALIAS
                  0x000884                  DOCOL
                  0x0003d2                  DODO
                  0x000446                  DOI
                  0x00044c                  DOJ
                  0x0003de                  DOLOOP
                  0x00107c                  DOSTR
                  0x00154a                  DOT
                  0x0010a6                  DOTQP
                  0x0010e2                  DOTQUOTE
                  0x001504                  DOTR
                  0x0011ae                  DOTS
                  0x001ada                  DOUSER
                  0x000784                  DP
                  0x00047e                  DROP
                  0x000460                  DUP
                  0x001604                  ELOAD
                  0x00117a                  ELSE
                  0x001388                  EMIT
                  0x001ad0                  ENTER
                  0x000688                  EQUAL
                  0x000c1e                  ERROR
                  0x0015fa                  ESTORE
                  0x000cfa                  EVAL
                  0x00062a                  EVEN
                  0x000406                  EXECUTE
                  0x000388                  EXIT
                  0x00144e                  EXTRACT
                  0x00041a                  FETCH
                  0x000414                  FEXEC
                  0x000718                  FILL
                  0x000b8a                  FIND
                  0x000fb4                  FOREJUMP
                  0x001616                  GETKEY
                  0x00132e                  GETX
                  0x001338                  GETY
                  0x00069c                  GREATER
                  0x001664                  HARDWARE_INIT
                  0x0011e0                  HDUMP
                  0x0006ea                  HERE
                  0x000528                  HEX
                  0x000842                  HIDDEN
                  0x000eac                  HIDE
                  0x00147c                  HOLD
                  0x0007ea                  HP
                  0x000f22                  ICOMPILE
                  0x001156                  IIF
                  0x000836                  IMMED
                  0x000e82                  IMMEDIATE
                  0x0011a6                  INFLOOP
                  0x000c96                  INTERPRET
                  0x00065e                  INVERT
                  0x001682                  IO_LOCK
                  0x0003e6                  IPFETCH
                  0x0003ee                  IPSTORE
                  0x001606                  KBD_INIT
                  0x001608                  KBD_RESET
                  0x001638                  KEY
                  0x00160a                  KEYFILTER
                  0x000812                  LAST
                  0x0007ae                  LATEST
                  0x000fda                  LBRACKET
                  0x001368                  LEFT
                  0x00084e                  LENMASK
                  0x000696                  LESS
                  0x0016ac                  LFSR
                  0x000392                  LIT
                  0x00106a                  LITERAL
                  0x000590                  LSHIFT
                  0x001464                  LTSHARP
                  0x000f72                  MARKADDR
                  0x000f9a                  MARKSLOT
                  0x00060c                  MAX
                  0x000614                  MIN
                  0x000554                  MINUS
                  0x000730                  MINUSTRAILING
                  0x0006fa                  MOVE
                  0x0005ac                  MPLUS
                  0x0016a2                  MSEC
                  0x00066a                  NEGATE
                  0x0008f8                  NEGQ
                  0x000de8                  NFATOCFA
                  0x000dd4                  NFATOLFA
                  0x0004ca                  NIP
                  0x000690                  NOTEQ
                  0x0004ae                  NROT
                  0x00164e                  NUFQ
                  0x00091e                  NUMBERQ
                  0x000632                  ODD
                  0x000d1e                  OK
                  0x00056c                  ONEMINUS
                  0x00055c                  ONEPLUS
                  0x00064a                  OR
                  0x0004b8                  OVER
                  0x00073a                  PACKS
                  0x0007cc                  PAD
                  0x00086e                  PADSIZE
                  0x000b2c                  PARSE
                  0x000520                  PICK
                  0x00054e                  PLUS
                  0x0005a4                  PLUSSTORE
                  0x001034                  POSTONE
                  0x000f36                  QCOMPILE
                  0x000474                  QDUP
                  0x001620                  QKEY
                  0x000a52                  QNUMBER
                  0x000a1c                  QSIGN
                  0x001566                  QUESTION
                  0x000d9a                  QUIT
                  0x0007b8                  R0
                  0x00082c                  RAMEND
                  0x0016b6                  RAND
                  0x000fea                  RBRACKET
                  0x0003fa                  REBOOT
                  0x0010f8                  RECURSE
                  0x0004e2                  RFETCH
                  0x0004da                  RFROM
                  0x001372                  RIGHT
                  0x0015ee                  RLOAD
                  0x0004a4                  ROT
                  0x0004fa                  RPFETCH
                  0x000502                  RPSTORE
                  0x00059c                  RSHIFT
                  0x0015e4                  RSTORE
                  0x0007c2                  S0
                  0x00070e                  SCAN
                  0x001324                  SCRLDN
                  0x001318                  SCRLUP
                  0x0015d8                  SDCINIT
                  0x00123c                  SEE
                  0x001284                  SEELIST
                  0x0015b4                  SEMIT
                  0x0015a0                  SERIAL_INIT
                  0x001342                  SETX
                  0x00134c                  SETY
                  0x00167e                  SET_CLOCK
                  0x0015be                  SGET
                  0x001492                  SHARP
                  0x0014ce                  SHARPGT
                  0x0014a4                  SHARPS
                  0x0014b8                  SIGN
                  0x000ae6                  SKIP
                  0x000b14                  SLASHSTRING
                  0x0015c0                  SOUND_INIT
                  0x00139a                  SPACE
                  0x0013a6                  SPACES
                  0x0004ea                  SPFETCH
                  0x0004f2                  SPSTORE
                  0x0010d0                  SQUOTE
                  0x0016c0                  SRAND
                  0x00089c                  SRCSTORE
                  0x0005b2                  STAR
                  0x0005e4                  STARSLASH
                  0x0005ee                  STARSLASHMOD
                  0x00077a                  STATE
                  0x000430                  STORE
                  0x0015cc                  STORE_INIT
                  0x0014ea                  STR
                  0x0010b6                  STRCOMPILE
                  0x001098                  STRQUOTP
                  0x000492                  SWAP
                  0x0007a0                  SYSLATEST
                  0x0003ba                  TBRANCH
                  0x00137e                  TGLCHAR
                  0x00116a                  THEN
                  0x0007d6                  TIB
                  0x000862                  TIBSIZE
                  0x000ed2                  TICK
                  0x00168e                  TICKS
                  0x0007f8                  TICKSOURCE
                  0x00167c                  TICKS_INIT
                  0x0006e0                  TOCHAR
                  0x000c4c                  TOCOUNTED
                  0x0007e0                  TOIN
                  0x0015ca                  TONE
                  0x0009e0                  TONUMBER
                  0x0004d2                  TOR
                  0x000890                  TSOURCE
                  0x00050c                  TUCK
                  0x0012ee                  TVOUT_INIT
                  0x000488                  TWODROP
                  0x00046a                  TWODUP
                  0x00042a                  TWOFETCH
                  0x000574                  TWOMINUS
                  0x0004c2                  TWOOVER
                  0x000564                  TWOPLUS
                  0x000584                  TWOSLASH
                  0x00057c                  TWOSTAR
                  0x000440                  TWOSTORE
                  0x00049c                  TWOSWAP
                  0x0013d8                  TYPE
                  0x001538                  UDOT
                  0x00151c                  UDOTR
                  0x0005c2                  UDSTAR
                  0x0006ac                  UGREATER
                  0x0006a4                  ULESS
                  0x00087a                  ULIMIT
                  0x000604                  UMSLASHMOD
                  0x0005ba                  UMSTAR
                  0x000458                  UNLOOP
                  0x001130                  UNTIL
                  0x000adc                  UPPER
                  0x001698                  USEC
                  0x001684                  VARS_INIT
                  0x000820                  VERSION
                  0x0012f8                  VIDON
                  0x001192                  WHILE
                  0x000620                  WITHIN
                  0x000b5a                  WORD
                  0x000a92                  WORDS
                  0x000652                  XOR
                  0x0003c8                  ZBRANCH
                  0x000672                  ZEROEQ
                  0x000682                  ZEROGT
                  0x00067a                  ZEROLT
                  0x000332                  __CNInterrupt
                  0x00035a                  __DefaultInterrupt
                  0x0557fa                  __FGS.sec
                  0x00037e                  __INT1Interrupt
                  0x000358                  __MathError
                  0x000286                  __OC2Interrupt
                  0x00035c                  __T1Interrupt
                  0x000218                  __T2Interrupt
                  0x0002ea                  __U1RXInterrupt
                  0x00030e                  __U1TXInterrupt
                  0x00033c                  __U2RXInterrupt
                  0x000200                  __reset
                  0x002796                  _cold
                  0x0016c2                  _font
                  0x007ffe                  _sys_latest
                  0x001ac2                  _version
                  0x001e2c                  code_ABS
                  0x001efa                  code_ALIGNED
                  0x001e36                  code_AND
                  0x0022bc                  code_BAUD
                  0x001fda                  code_BL
                  0x001b08                  code_BRANCH
                  0x001ede                  code_CELL
                  0x001ee8                  code_CELLPLUS
                  0x001ef0                  code_CELLS
                  0x001b90                  code_CFETCH
                  0x001f7c                  code_CFILL
                  0x001afc                  code_CLIT
                  0x00225a                  code_CLRLN
                  0x002642                  code_CLR_RAM
                  0x00213a                  code_CLS
                  0x001f2e                  code_CMOVE
                  0x002242                  code_CR
                  0x001bb2                  code_CSTORE
                  0x00211e                  code_CURENBL
                  0x001cd0                  code_DEPTH
                  0x001d86                  code_DIVIDE
                  0x001dba                  code_DIVMOD
                  0x002002                  code_DOCOL
                  0x001b2c                  code_DODO
                  0x001bcc                  code_DOI
                  0x001bd6                  code_DOJ
                  0x001b3e                  code_DOLOOP
                  0x001c0a                  code_DROP
                  0x001bea                  code_DUP
                  0x002558                  code_ELOAD
                  0x002222                  code_EMIT
                  0x001e7e                  code_EQUAL
                  0x002510                  code_ESTORE
                  0x001e10                  code_EVEN
                  0x001b6e                  code_EXECUTE
                  0x001aea                  code_EXIT
                  0x001b88                  code_FETCH
                  0x001b76                  code_FEXEC
                  0x001f66                  code_FILL
                  0x002066                  code_FIND
                  0x0025f4                  code_GETKEY
                  0x002164                  code_GETX
                  0x002172                  code_GETY
                  0x001eae                  code_GREATER
                  0x001fc6                  code_HIDDEN
                  0x001fbc                  code_IMMED
                  0x0020ac                  code_INFLOOP
                  0x001e4e                  code_INVERT
                  0x00264e                  code_IO_LOCK
                  0x001b58                  code_IPFETCH
                  0x001b62                  code_IPSTORE
                  0x002590                  code_KBD_INIT
                  0x0025c0                  code_KBD_RESET
                  0x0025da                  code_KEYFILTER
                  0x0021bc                  code_LEFT
                  0x001fd0                  code_LENMASK
                  0x001e9e                  code_LESS
                  0x0026b4                  code_LFSR
                  0x001af2                  code_LIT
                  0x001d2e                  code_LSHIFT
                  0x001ddc                  code_MAX
                  0x001dea                  code_MIN
                  0x001cf4                  code_MINUS
                  0x001f92                  code_MINUSTRAILING
                  0x001f12                  code_MOVE
                  0x001d5c                  code_MPLUS
                  0x0026a4                  code_MSEC
                  0x001e56                  code_NEGATE
                  0x001c76                  code_NIP
                  0x001e8e                  code_NOTEQ
                  0x001c4e                  code_NROT
                  0x001e1e                  code_ODD
                  0x001d0e                  code_ONEMINUS
                  0x001cfe                  code_ONEPLUS
                  0x001e3e                  code_OR
                  0x001c5e                  code_OVER
                  0x001fee                  code_PADSIZE
                  0x001cde                  code_PICK
                  0x001cec                  code_PLUS
                  0x001d4e                  code_PLUSSTORE
                  0x001bfe                  code_QDUP
                  0x001fb2                  code_RAMEND
                  0x0026cc                  code_RAND
                  0x001b6c                  code_REBOOT
                  0x001c92                  code_RFETCH
                  0x001c88                  code_RFROM
                  0x0021e2                  code_RIGHT
                  0x0024de                  code_RLOAD
                  0x001c3c                  code_ROT
                  0x001cb0                  code_RPFETCH
                  0x001cba                  code_RPSTORE
                  0x001d3e                  code_RSHIFT
                  0x0024ac                  code_RSTORE
                  0x001f4a                  code_SCAN
                  0x00215a                  code_SCRLDN
                  0x002150                  code_SCRLUP
                  0x002484                  code_SDCINIT
                  0x0022dc                  code_SEMIT
                  0x002282                  code_SERIAL_INIT
                  0x002180                  code_SETX
                  0x00219e                  code_SETY
                  0x002632                  code_SET_CLOCK
                  0x00230a                  code_SGET
                  0x00204a                  code_SKIP
                  0x00232a                  code_SOUND_INIT
                  0x002254                  code_SPACE
                  0x001c9c                  code_SPFETCH
                  0x001ca8                  code_SPSTORE
                  0x0026fe                  code_SRAND
                  0x00201a                  code_SRCSTORE
                  0x001d6c                  code_STAR
                  0x001d94                  code_STARSLASH
                  0x001da6                  code_STARSLASHMOD
                  0x001ba8                  code_STORE
                  0x00235c                  code_STORE_INIT
                  0x001c1c                  code_SWAP
                  0x001b10                  code_TBRANCH
                  0x00220c                  code_TGLCHAR
                  0x001fe4                  code_TIBSIZE
                  0x002688                  code_TICKS
                  0x002616                  code_TICKS_INIT
                  0x001f04                  code_TOCHAR
                  0x002346                  code_TONE
                  0x001c7e                  code_TOR
                  0x00200c                  code_TSOURCE
                  0x001cc4                  code_TUCK
                  0x0020ae                  code_TVOUT_INIT
                  0x001c12                  code_TWODROP
                  0x001bf2                  code_TWODUP
                  0x001b9a                  code_TWOFETCH
                  0x001d16                  code_TWOMINUS
                  0x001c68                  code_TWOOVER
                  0x001d06                  code_TWOPLUS
                  0x001d26                  code_TWOSLASH
                  0x001d1e                  code_TWOSTAR
                  0x001bbe                  code_TWOSTORE
                  0x001c28                  code_TWOSWAP
                  0x001ece                  code_UGREATER
                  0x001ebe                  code_ULESS
                  0x001ff8                  code_ULIMIT
                  0x001dca                  code_UMSLASHMOD
                  0x001d7a                  code_UMSTAR
                  0x001be0                  code_UNLOOP
                  0x002028                  code_UPPER
                  0x002692                  code_USEC
                  0x002656                  code_VARS_INIT
                  0x001fa8                  code_VERSION
                  0x002112                  code_VIDON
                  0x001df8                  code_WITHIN
                  0x001e46                  code_XOR
                  0x001b1e                  code_ZBRANCH
                  0x001e5e                  code_ZEROEQ
                  0x001e74                  code_ZEROGT
                  0x001e68                  code_ZEROLT
                  0x00270e                  cursor_blink
                  0x002740                  cursor_disable
                  0x002730                  cursor_enable
                  0x000d44                  lfa_ABORT
                  0x000d56                  lfa_ABORTQ
                  0x000634                  lfa_ABS
                  0x000b8c                  lfa_ACCEPT
                  0x000ae8                  lfa_ADRTOIN
                  0x001114                  lfa_AGAIN
                  0x00113c                  lfa_AHEAD
                  0x0006cc                  lfa_ALIGNED
                  0x000ebe                  lfa_ALLOT
                  0x00063c                  lfa_AND
                  0x00140c                  lfa_BACKCHAR
                  0x000f7a                  lfa_BACKJUMP
                  0x000788                  lfa_BASE
                  0x00089e                  lfa_BASEQ
                  0x0015a2                  lfa_BAUD
                  0x001104                  lfa_BEGIN
                  0x000850                  lfa_BL
                  0x0003a0                  lfa_BRANCH
                  0x000ff6                  lfa_BRCOMPILE
                  0x000c72                  lfa_CCOMMA
                  0x0006ae                  lfa_CELL
                  0x0006b8                  lfa_CELLPLUS
                  0x0006c2                  lfa_CELLS
                  0x000dfc                  lfa_CFATONFA
                  0x00041c                  lfa_CFETCH
                  0x00071a                  lfa_CFILL
                  0x001582                  lfa_CHARS
                  0x000394                  lfa_CLIT
                  0x0013c6                  lfa_CLRLN
                  0x001306                  lfa_CLS
                  0x0006fc                  lfa_CMOVE
                  0x0007fc                  lfa_CNTSOURCE
                  0x001194                  lfa_COLON
                  0x000c5a                  lfa_COMMA
                  0x000f58                  lfa_COMMAXT
                  0x00100c                  lfa_COMPILECFA
                  0x000c00                  lfa_COUNT
                  0x001574                  lfa_CQUESTION
                  0x00138a                  lfa_CR
                  0x000fc4                  lfa_CREATE
                  0x000432                  lfa_CSTORE
                  0x0012fa                  lfa_CURENBL
                  0x00134e                  lfa_CURPOS
                  0x000534                  lfa_DECIMAL
                  0x0013fa                  lfa_DELETE
                  0x00050e                  lfa_DEPTH
                  0x001422                  lfa_DIGIT
                  0x000984                  lfa_DIGITQ
                  0x0005d8                  lfa_DIVIDE
                  0x0005f0                  lfa_DIVMOD
                  0x00087c                  lfa_DOCOL
                  0x0003ca                  lfa_DODO
                  0x000442                  lfa_DOI
                  0x000448                  lfa_DOJ
                  0x0003d4                  lfa_DOLOOP
                  0x001076                  lfa_DOSTR
                  0x001546                  lfa_DOT
                  0x0010a0                  lfa_DOTQP
                  0x0010dc                  lfa_DOTQUOTE
                  0x0014fe                  lfa_DOTR
                  0x0011a8                  lfa_DOTS
                  0x00077e                  lfa_DP
                  0x000476                  lfa_DROP
                  0x00045a                  lfa_DUP
                  0x0015fc                  lfa_ELOAD
                  0x001172                  lfa_ELSE
                  0x001380                  lfa_EMIT
                  0x000684                  lfa_EQUAL
                  0x000c16                  lfa_ERROR
                  0x0015f0                  lfa_ESTORE
                  0x000cee                  lfa_EVAL
                  0x000622                  lfa_EVEN
                  0x0003fc                  lfa_EXECUTE
                  0x001444                  lfa_EXTRACT
                  0x000416                  lfa_FETCH
                  0x000408                  lfa_FEXEC
                  0x000710                  lfa_FILL
                  0x000b82                  lfa_FIND
                  0x000fa8                  lfa_FOREJUMP
                  0x00160c                  lfa_GETKEY
                  0x001326                  lfa_GETX
                  0x001330                  lfa_GETY
                  0x000698                  lfa_GREATER
                  0x0011d8                  lfa_HDUMP
                  0x0006e2                  lfa_HERE
                  0x000522                  lfa_HEX
                  0x000838                  lfa_HIDDEN
                  0x000ea4                  lfa_HIDE
                  0x001474                  lfa_HOLD
                  0x0007e4                  lfa_HP
                  0x000f16                  lfa_ICOMPILE
                  0x001150                  lfa_IIF
                  0x00082e                  lfa_IMMED
                  0x000e76                  lfa_IMMEDIATE
                  0x00119c                  lfa_INFLOOP
                  0x000c8a                  lfa_INTERPRET
                  0x000654                  lfa_INVERT
                  0x0003e0                  lfa_IPFETCH
                  0x0003e8                  lfa_IPSTORE
                  0x001632                  lfa_KEY
                  0x00080a                  lfa_LAST
                  0x0007a4                  lfa_LATEST
                  0x000fd6                  lfa_LBRACKET
                  0x001360                  lfa_LEFT
                  0x000844                  lfa_LENMASK
                  0x000692                  lfa_LESS
                  0x0016a4                  lfa_LFSR
                  0x00038a                  lfa_LIT
                  0x001060                  lfa_LITERAL
                  0x000586                  lfa_LSHIFT
                  0x00145e                  lfa_LTSHARP
                  0x000f6a                  lfa_MARKADDR
                  0x000f92                  lfa_MARKSLOT
                  0x000606                  lfa_MAX
                  0x00060e                  lfa_MIN
                  0x000550                  lfa_MINUS
                  0x000724                  lfa_MINUSTRAILING
                  0x0006f2                  lfa_MOVE
                  0x0005a6                  lfa_MPLUS
                  0x00169a                  lfa_MSEC
                  0x000660                  lfa_NEGATE
                  0x0008f0                  lfa_NEGQ
                  0x000dde                  lfa_NFATOCFA
                  0x000dca                  lfa_NFATOLFA
                  0x0004c4                  lfa_NIP
                  0x00068a                  lfa_NOTEQ
                  0x0004a6                  lfa_NROT
                  0x001646                  lfa_NUFQ
                  0x000914                  lfa_NUMBERQ
                  0x00062c                  lfa_ODD
                  0x000d18                  lfa_OK
                  0x000566                  lfa_ONEMINUS
                  0x000556                  lfa_ONEPLUS
                  0x000644                  lfa_OR
                  0x0004b0                  lfa_OVER
                  0x000732                  lfa_PACKS
                  0x0007c6                  lfa_PAD
                  0x000864                  lfa_PADSIZE
                  0x000b24                  lfa_PARSE
                  0x000518                  lfa_PICK
                  0x00054a                  lfa_PLUS
                  0x00059e                  lfa_PLUSSTORE
                  0x001028                  lfa_POSTONE
                  0x000f2a                  lfa_QCOMPILE
                  0x00046c                  lfa_QDUP
                  0x001618                  lfa_QKEY
                  0x000a48                  lfa_QNUMBER
                  0x000a14                  lfa_QSIGN
                  0x001562                  lfa_QUESTION
                  0x000d92                  lfa_QUIT
                  0x0007b2                  lfa_R0
                  0x000822                  lfa_RAMEND
                  0x0016ae                  lfa_RAND
                  0x000fe6                  lfa_RBRACKET
                  0x0003f0                  lfa_REBOOT
                  0x0010ee                  lfa_RECURSE
                  0x0004dc                  lfa_RFETCH
                  0x0004d4                  lfa_RFROM
                  0x00136a                  lfa_RIGHT
                  0x0015e6                  lfa_RLOAD
                  0x00049e                  lfa_ROT
                  0x0004f4                  lfa_RPFETCH
                  0x0004fc                  lfa_RPSTORE
                  0x000592                  lfa_RSHIFT
                  0x0015da                  lfa_RSTORE
                  0x0007bc                  lfa_S0
                  0x000706                  lfa_SCAN
                  0x00131a                  lfa_SCRLDN
                  0x00130e                  lfa_SCRLUP
                  0x0015ce                  lfa_SDCINIT
                  0x001236                  lfa_SEE
                  0x00127a                  lfa_SEELIST
                  0x0015ac                  lfa_SEMIT
                  0x00133a                  lfa_SETX
                  0x001344                  lfa_SETY
                  0x0015b6                  lfa_SGET
                  0x00148e                  lfa_SHARP
                  0x0014c8                  lfa_SHARPGT
                  0x00149e                  lfa_SHARPS
                  0x0014b0                  lfa_SIGN
                  0x000ade                  lfa_SKIP
                  0x000b0a                  lfa_SLASHSTRING
                  0x001392                  lfa_SPACE
                  0x00139c                  lfa_SPACES
                  0x0004e4                  lfa_SPFETCH
                  0x0004ec                  lfa_SPSTORE
                  0x0010ca                  lfa_SQUOTE
                  0x0016b8                  lfa_SRAND
                  0x000892                  lfa_SRCSTORE
                  0x0005ae                  lfa_STAR
                  0x0005de                  lfa_STARSLASH
                  0x0005e6                  lfa_STARSLASHMOD
                  0x000772                  lfa_STATE
                  0x00042c                  lfa_STORE
                  0x0014e4                  lfa_STR
                  0x0010b0                  lfa_STRCOMPILE
                  0x001092                  lfa_STRQUOTP
                  0x00048a                  lfa_SWAP
                  0x000794                  lfa_SYSLATEST
                  0x0003ae                  lfa_TBRANCH
                  0x001374                  lfa_TGLCHAR
                  0x001162                  lfa_THEN
                  0x0007d0                  lfa_TIB
                  0x000858                  lfa_TIBSIZE
                  0x000ece                  lfa_TICK
                  0x001686                  lfa_TICKS
                  0x0007ee                  lfa_TICKSOURCE
                  0x0006d8                  lfa_TOCHAR
                  0x000c40                  lfa_TOCOUNTED
                  0x0007da                  lfa_TOIN
                  0x0015c2                  lfa_TONE
                  0x0009d6                  lfa_TONUMBER
                  0x0004cc                  lfa_TOR
                  0x000886                  lfa_TSOURCE
                  0x000504                  lfa_TUCK
                  0x000480                  lfa_TWODROP
                  0x000462                  lfa_TWODUP
                  0x000424                  lfa_TWOFETCH
                  0x00056e                  lfa_TWOMINUS
                  0x0004ba                  lfa_TWOOVER
                  0x00055e                  lfa_TWOPLUS
                  0x00057e                  lfa_TWOSLASH
                  0x000576                  lfa_TWOSTAR
                  0x00043a                  lfa_TWOSTORE
                  0x000494                  lfa_TWOSWAP
                  0x0013d0                  lfa_TYPE
                  0x001532                  lfa_UDOT
                  0x001516                  lfa_UDOTR
                  0x0005bc                  lfa_UDSTAR
                  0x0006a6                  lfa_UGREATER
                  0x00069e                  lfa_ULESS
                  0x000870                  lfa_ULIMIT
                  0x0005fa                  lfa_UMSLASHMOD
                  0x0005b4                  lfa_UMSTAR
                  0x00044e                  lfa_UNLOOP
                  0x001128                  lfa_UNTIL
                  0x000ad4                  lfa_UPPER
                  0x001690                  lfa_USEC
                  0x000816                  lfa_VERSION
                  0x0012f0                  lfa_VIDON
                  0x00118a                  lfa_WHILE
                  0x000616                  lfa_WITHIN
                  0x000b52                  lfa_WORD
                  0x000a8a                  lfa_WORDS
                  0x00064c                  lfa_XOR
                  0x0003bc                  lfa_ZBRANCH
                  0x00066c                  lfa_ZEROEQ
                  0x00067c                  lfa_ZEROGT
                  0x000674                  lfa_ZEROLT
                  0x000380                  name_EXIT
                  0x002774                  scroll_down
                  0x00274e                  scroll_up
                  0x00271a                  toggle_char

Configuration mmoire

Nom              Origine            Longueur           Attributs
data             0x001000           0x00c000           a !xr
reset            0x000000           0x000004  
ivt              0x000004           0x0001fc  
program          0x000200           0x0555ec           xr
FICD             0x0557f0           0x000002  
FPOR             0x0557f2           0x000002  
FWDT             0x0557f4           0x000002  
FOSC             0x0557f6           0x000002  
FOSCSEL          0x0557f8           0x000002  
FGS              0x0557fa           0x000002  
FUID0            0x800ff8           0x000002  
FUID1            0x800ffa           0x000002  
FUID2            0x800ffc           0x000002  
FUID3            0x800ffe           0x000002  
*default*        0x000000           0xffffffff  
aivt             0x000000           0xffffffff  

Script de l'diteurs de liens and table de projection mmoire

LOAD build/default/production/font.o
LOAD build/default/production/mcu_config_bits.o
LOAD build/default/production/forthex.o
                    0x0001                  __MPLAB_BUILD = 0x1
LOAD p24EP512GP202
LOAD /opt/microchip/xc16/v1.26/bin/bin/../../lib/libfx-elf.a
                    0x557f0                  __FICD = 0x557f0
                    0x557f2                  __FPOR = 0x557f2
                    0x557f4                  __FWDT = 0x557f4
                    0x557f6                  __FOSC = 0x557f6
                    0x557f8                  __FOSCSEL = 0x557f8
                    0x557fa                  __FGS = 0x557fa
                    0x800ff8                  __FUID0 = 0x800ff8
                    0x800ffa                  __FUID1 = 0x800ffa
                    0x800ffc                  __FUID2 = 0x800ffc
                    0x800ffe                  __FUID3 = 0x800ffe
                    0x0200                  __CODE_BASE = 0x200
                    0x555ec                  __CODE_LENGTH = 0x555ec
                    0x0004                  __IVT_BASE = 0x4
                    0x1000                  __DATA_BASE = 0x1000
                    0xc000                  __DATA_LENGTH = 0xc000

.reset            0x000000          0x4
                  0x000000          0x2 SHORT 0x200 ABSOLUTE (__reset)
                  0x000001          0x2 SHORT 0x4
                  0x000002          0x2 SHORT 0x0 ((ABSOLUTE (__reset) >> 0x10) & 0x7f)
                  0x000003          0x2 SHORT 0x0

.text
 *(.init)
 *(.user_init)
 *(.handle)
 *(.isr*)
 *(.libc)
 *(.libm)
 *(.libdsp)
 *(.lib*)

usercode
 *(usercode)

.intr             0x000218        0x168
 *(.intr)
 .intr            0x000218        0x168 build/default/production/forthex.o
                  0x000218                  __T2Interrupt
                  0x000286                  __OC2Interrupt
                  0x0002ea                  __U1RXInterrupt
                  0x00030e                  __U1TXInterrupt
                  0x000332                  __CNInterrupt
                  0x00033c                  __U2RXInterrupt
                  0x000358                  __MathError
                  0x00035a                  __DefaultInterrupt
                  0x00035c                  __T1Interrupt
                  0x00037e                  __INT1Interrupt

.start.text
 *(.start.txt)

.sysdict            0x8380       0x1342
 *(.sysdict)
 .sysdict           0x8380       0x1342 build/default/production/forthex.o
                    0x8380                  name_EXIT
                    0x8388                  EXIT
                    0x838a                  lfa_LIT
                    0x8392                  LIT
                    0x8394                  lfa_CLIT
                    0x839e                  CLIT
                    0x83a0                  lfa_BRANCH
                    0x83ac                  BRANCH
                    0x83ae                  lfa_TBRANCH
                    0x83ba                  TBRANCH
                    0x83bc                  lfa_ZBRANCH
                    0x83c8                  ZBRANCH
                    0x83ca                  lfa_DODO
                    0x83d2                  DODO
                    0x83d4                  lfa_DOLOOP
                    0x83de                  DOLOOP
                    0x83e0                  lfa_IPFETCH
                    0x83e6                  IPFETCH
                    0x83e8                  lfa_IPSTORE
                    0x83ee                  IPSTORE
                    0x83f0                  lfa_REBOOT
                    0x83fa                  REBOOT
                    0x83fc                  lfa_EXECUTE
                    0x8406                  EXECUTE
                    0x8408                  lfa_FEXEC
                    0x8414                  FEXEC
                    0x8416                  lfa_FETCH
                    0x841a                  FETCH
                    0x841c                  lfa_CFETCH
                    0x8422                  CFETCH
                    0x8424                  lfa_TWOFETCH
                    0x842a                  TWOFETCH
                    0x842c                  lfa_STORE
                    0x8430                  STORE
                    0x8432                  lfa_CSTORE
                    0x8438                  CSTORE
                    0x843a                  lfa_TWOSTORE
                    0x8440                  TWOSTORE
                    0x8442                  lfa_DOI
                    0x8446                  DOI
                    0x8448                  lfa_DOJ
                    0x844c                  DOJ
                    0x844e                  lfa_UNLOOP
                    0x8458                  UNLOOP
                    0x845a                  lfa_DUP
                    0x8460                  DUP
                    0x8462                  lfa_TWODUP
                    0x846a                  TWODUP
                    0x846c                  lfa_QDUP
                    0x8474                  QDUP
                    0x8476                  lfa_DROP
                    0x847e                  DROP
                    0x8480                  lfa_TWODROP
                    0x8488                  TWODROP
                    0x848a                  lfa_SWAP
                    0x8492                  SWAP
                    0x8494                  lfa_TWOSWAP
                    0x849c                  TWOSWAP
                    0x849e                  lfa_ROT
                    0x84a4                  ROT
                    0x84a6                  lfa_NROT
                    0x84ae                  NROT
                    0x84b0                  lfa_OVER
                    0x84b8                  OVER
                    0x84ba                  lfa_TWOOVER
                    0x84c2                  TWOOVER
                    0x84c4                  lfa_NIP
                    0x84ca                  NIP
                    0x84cc                  lfa_TOR
                    0x84d2                  TOR
                    0x84d4                  lfa_RFROM
                    0x84da                  RFROM
                    0x84dc                  lfa_RFETCH
                    0x84e2                  RFETCH
                    0x84e4                  lfa_SPFETCH
                    0x84ea                  SPFETCH
                    0x84ec                  lfa_SPSTORE
                    0x84f2                  SPSTORE
                    0x84f4                  lfa_RPFETCH
                    0x84fa                  RPFETCH
                    0x84fc                  lfa_RPSTORE
                    0x8502                  RPSTORE
                    0x8504                  lfa_TUCK
                    0x850c                  TUCK
                    0x850e                  lfa_DEPTH
                    0x8516                  DEPTH
                    0x8518                  lfa_PICK
                    0x8520                  PICK
                    0x8522                  lfa_HEX
                    0x8528                  HEX
                    0x8534                  lfa_DECIMAL
                    0x853e                  DECIMAL
                    0x854a                  lfa_PLUS
                    0x854e                  PLUS
                    0x8550                  lfa_MINUS
                    0x8554                  MINUS
                    0x8556                  lfa_ONEPLUS
                    0x855c                  ONEPLUS
                    0x855e                  lfa_TWOPLUS
                    0x8564                  TWOPLUS
                    0x8566                  lfa_ONEMINUS
                    0x856c                  ONEMINUS
                    0x856e                  lfa_TWOMINUS
                    0x8574                  TWOMINUS
                    0x8576                  lfa_TWOSTAR
                    0x857c                  TWOSTAR
                    0x857e                  lfa_TWOSLASH
                    0x8584                  TWOSLASH
                    0x8586                  lfa_LSHIFT
                    0x8590                  LSHIFT
                    0x8592                  lfa_RSHIFT
                    0x859c                  RSHIFT
                    0x859e                  lfa_PLUSSTORE
                    0x85a4                  PLUSSTORE
                    0x85a6                  lfa_MPLUS
                    0x85ac                  MPLUS
                    0x85ae                  lfa_STAR
                    0x85b2                  STAR
                    0x85b4                  lfa_UMSTAR
                    0x85ba                  UMSTAR
                    0x85bc                  lfa_UDSTAR
                    0x85c2                  UDSTAR
                    0x85d8                  lfa_DIVIDE
                    0x85dc                  DIVIDE
                    0x85de                  lfa_STARSLASH
                    0x85e4                  STARSLASH
                    0x85e6                  lfa_STARSLASHMOD
                    0x85ee                  STARSLASHMOD
                    0x85f0                  lfa_DIVMOD
                    0x85f8                  DIVMOD
                    0x85fa                  lfa_UMSLASHMOD
                    0x8604                  UMSLASHMOD
                    0x8606                  lfa_MAX
                    0x860c                  MAX
                    0x860e                  lfa_MIN
                    0x8614                  MIN
                    0x8616                  lfa_WITHIN
                    0x8620                  WITHIN
                    0x8622                  lfa_EVEN
                    0x862a                  EVEN
                    0x862c                  lfa_ODD
                    0x8632                  ODD
                    0x8634                  lfa_ABS
                    0x863a                  ABS
                    0x863c                  lfa_AND
                    0x8642                  AND
                    0x8644                  lfa_OR
                    0x864a                  OR
                    0x864c                  lfa_XOR
                    0x8652                  XOR
                    0x8654                  lfa_INVERT
                    0x865e                  INVERT
                    0x8660                  lfa_NEGATE
                    0x866a                  NEGATE
                    0x866c                  lfa_ZEROEQ
                    0x8672                  ZEROEQ
                    0x8674                  lfa_ZEROLT
                    0x867a                  ZEROLT
                    0x867c                  lfa_ZEROGT
                    0x8682                  ZEROGT
                    0x8684                  lfa_EQUAL
                    0x8688                  EQUAL
                    0x868a                  lfa_NOTEQ
                    0x8690                  NOTEQ
                    0x8692                  lfa_LESS
                    0x8696                  LESS
                    0x8698                  lfa_GREATER
                    0x869c                  GREATER
                    0x869e                  lfa_ULESS
                    0x86a4                  ULESS
                    0x86a6                  lfa_UGREATER
                    0x86ac                  UGREATER
                    0x86ae                  lfa_CELL
                    0x86b6                  CELL
                    0x86b8                  lfa_CELLPLUS
                    0x86c0                  CELLPLUS
                    0x86c2                  lfa_CELLS
                    0x86ca                  CELLS
                    0x86cc                  lfa_ALIGNED
                    0x86d6                  ALIGNED
                    0x86d8                  lfa_TOCHAR
                    0x86e0                  TOCHAR
                    0x86e2                  lfa_HERE
                    0x86ea                  HERE
                    0x86f2                  lfa_MOVE
                    0x86fa                  MOVE
                    0x86fc                  lfa_CMOVE
                    0x8704                  CMOVE
                    0x8706                  lfa_SCAN
                    0x870e                  SCAN
                    0x8710                  lfa_FILL
                    0x8718                  FILL
                    0x871a                  lfa_CFILL
                    0x8722                  CFILL
                    0x8724                  lfa_MINUSTRAILING
                    0x8730                  MINUSTRAILING
                    0x8732                  lfa_PACKS
                    0x873a                  PACKS
                    0x8772                  lfa_STATE
                    0x877a                  STATE
                    0x877e                  lfa_DP
                    0x8784                  DP
                    0x8788                  lfa_BASE
                    0x8790                  BASE
                    0x8794                  lfa_SYSLATEST
                    0x87a0                  SYSLATEST
                    0x87a4                  lfa_LATEST
                    0x87ae                  LATEST
                    0x87b2                  lfa_R0
                    0x87b8                  R0
                    0x87bc                  lfa_S0
                    0x87c2                  S0
                    0x87c6                  lfa_PAD
                    0x87cc                  PAD
                    0x87d0                  lfa_TIB
                    0x87d6                  TIB
                    0x87da                  lfa_TOIN
                    0x87e0                  TOIN
                    0x87e4                  lfa_HP
                    0x87ea                  HP
                    0x87ee                  lfa_TICKSOURCE
                    0x87f8                  TICKSOURCE
                    0x87fc                  lfa_CNTSOURCE
                    0x8806                  CNTSOURCE
                    0x880a                  lfa_LAST
                    0x8812                  LAST
                    0x8816                  lfa_VERSION
                    0x8820                  VERSION
                    0x8822                  lfa_RAMEND
                    0x882c                  RAMEND
                    0x882e                  lfa_IMMED
                    0x8836                  IMMED
                    0x8838                  lfa_HIDDEN
                    0x8842                  HIDDEN
                    0x8844                  lfa_LENMASK
                    0x884e                  LENMASK
                    0x8850                  lfa_BL
                    0x8856                  BL
                    0x8858                  lfa_TIBSIZE
                    0x8862                  TIBSIZE
                    0x8864                  lfa_PADSIZE
                    0x886e                  PADSIZE
                    0x8870                  lfa_ULIMIT
                    0x887a                  ULIMIT
                    0x887c                  lfa_DOCOL
                    0x8884                  DOCOL
                    0x8886                  lfa_TSOURCE
                    0x8890                  TSOURCE
                    0x8892                  lfa_SRCSTORE
                    0x889c                  SRCSTORE
                    0x889e                  lfa_BASEQ
                    0x88a6                  BASEQ
                    0x88f0                  lfa_NEGQ
                    0x88f8                  NEGQ
                    0x8914                  lfa_NUMBERQ
                    0x891e                  NUMBERQ
                    0x8984                  lfa_DIGITQ
                    0x898e                  DIGITQ
                    0x89d6                  lfa_TONUMBER
                    0x89e0                  TONUMBER
                    0x8a14                  lfa_QSIGN
                    0x8a1c                  QSIGN
                    0x8a48                  lfa_QNUMBER
                    0x8a52                  QNUMBER
                    0x8a8a                  lfa_WORDS
                    0x8a92                  WORDS
                    0x8ad4                  lfa_UPPER
                    0x8adc                  UPPER
                    0x8ade                  lfa_SKIP
                    0x8ae6                  SKIP
                    0x8ae8                  lfa_ADRTOIN
                    0x8af2                  ADRTOIN
                    0x8b0a                  lfa_SLASHSTRING
                    0x8b14                  SLASHSTRING
                    0x8b24                  lfa_PARSE
                    0x8b2c                  PARSE
                    0x8b52                  lfa_WORD
                    0x8b5a                  WORD
                    0x8b82                  lfa_FIND
                    0x8b8a                  FIND
                    0x8b8c                  lfa_ACCEPT
                    0x8b96                  ACCEPT
                    0x8c00                  lfa_COUNT
                    0x8c08                  COUNT
                    0x8c16                  lfa_ERROR
                    0x8c1e                  ERROR
                    0x8c40                  lfa_TOCOUNTED
                    0x8c4c                  TOCOUNTED
                    0x8c5a                  lfa_COMMA
                    0x8c5e                  COMMA
                    0x8c72                  lfa_CCOMMA
                    0x8c78                  CCOMMA
                    0x8c8a                  lfa_INTERPRET
                    0x8c96                  INTERPRET
                    0x8cee                  lfa_EVAL
                    0x8cfa                  EVAL
                    0x8d18                  lfa_OK
                    0x8d1e                  OK
                    0x8d44                  lfa_ABORT
                    0x8d4c                  ABORT
                    0x8d56                  lfa_ABORTQ
                    0x8d60                  ABORTQ
                    0x8d92                  lfa_QUIT
                    0x8d9a                  QUIT
                    0x8dca                  lfa_NFATOLFA
                    0x8dd4                  NFATOLFA
                    0x8dde                  lfa_NFATOCFA
                    0x8de8                  NFATOCFA
                    0x8dfc                  lfa_CFATONFA
                    0x8e06                  CFATONFA
                    0x8e76                  lfa_IMMEDIATE
                    0x8e82                  IMMEDIATE
                    0x8ea4                  lfa_HIDE
                    0x8eac                  HIDE
                    0x8ebe                  lfa_ALLOT
                    0x8ec6                  ALLOT
                    0x8ece                  lfa_TICK
                    0x8ed2                  TICK
                    0x8f16                  lfa_ICOMPILE
                    0x8f22                  ICOMPILE
                    0x8f2a                  lfa_QCOMPILE
                    0x8f36                  QCOMPILE
                    0x8f58                  lfa_COMMAXT
                    0x8f64                  COMMAXT
                    0x8f6a                  lfa_MARKADDR
                    0x8f72                  MARKADDR
                    0x8f7a                  lfa_BACKJUMP
                    0x8f86                  BACKJUMP
                    0x8f92                  lfa_MARKSLOT
                    0x8f9a                  MARKSLOT
                    0x8fa8                  lfa_FOREJUMP
                    0x8fb4                  FOREJUMP
                    0x8fc4                  lfa_CREATE
                    0x8fce                  CREATE
                    0x8fd6                  lfa_LBRACKET
                    0x8fda                  LBRACKET
                    0x8fe6                  lfa_RBRACKET
                    0x8fea                  RBRACKET
                    0x8ff6                  lfa_BRCOMPILE
                    0x9002                  BRCOMPILE
                    0x900c                  lfa_COMPILECFA
                    0x9016                  COMPILECFA
                    0x9028                  lfa_POSTONE
                    0x9034                  POSTONE
                    0x9060                  lfa_LITERAL
                    0x906a                  LITERAL
                    0x9076                  lfa_DOSTR
                    0x907c                  DOSTR
                    0x9092                  lfa_STRQUOTP
                    0x9098                  STRQUOTP
                    0x90a0                  lfa_DOTQP
                    0x90a6                  DOTQP
                    0x90b0                  lfa_STRCOMPILE
                    0x90b6                  STRCOMPILE
                    0x90ca                  lfa_SQUOTE
                    0x90d0                  SQUOTE
                    0x90dc                  lfa_DOTQUOTE
                    0x90e2                  DOTQUOTE
                    0x90ee                  lfa_RECURSE
                    0x90f8                  RECURSE
                    0x9104                  lfa_BEGIN
                    0x910c                  BEGIN
                    0x9114                  lfa_AGAIN
                    0x911c                  AGAIN
                    0x9128                  lfa_UNTIL
                    0x9130                  UNTIL
                    0x913c                  lfa_AHEAD
                    0x9144                  AHEAD
                    0x9150                  lfa_IIF
                    0x9156                  IIF
                    0x9162                  lfa_THEN
                    0x916a                  THEN
                    0x9172                  lfa_ELSE
                    0x917a                  ELSE
                    0x918a                  lfa_WHILE
                    0x9192                  WHILE
                    0x9194                  lfa_COLON
                    0x9198                  COLON
                    0x919c                  lfa_INFLOOP
                    0x91a6                  INFLOOP
                    0x91a8                  lfa_DOTS
                    0x91ae                  DOTS
                    0x91d8                  lfa_HDUMP
                    0x91e0                  HDUMP
                    0x9236                  lfa_SEE
                    0x923c                  SEE
                    0x927a                  lfa_SEELIST
                    0x9284                  SEELIST
                    0x92ee                  TVOUT_INIT
                    0x92f0                  lfa_VIDON
                    0x92f8                  VIDON
                    0x92fa                  lfa_CURENBL
                    0x9304                  CURENBL
                    0x9306                  lfa_CLS
                    0x930c                  CLS
                    0x930e                  lfa_SCRLUP
                    0x9318                  SCRLUP
                    0x931a                  lfa_SCRLDN
                    0x9324                  SCRLDN
                    0x9326                  lfa_GETX
                    0x932e                  GETX
                    0x9330                  lfa_GETY
                    0x9338                  GETY
                    0x933a                  lfa_SETX
                    0x9342                  SETX
                    0x9344                  lfa_SETY
                    0x934c                  SETY
                    0x934e                  lfa_CURPOS
                    0x9358                  CURPOS
                    0x9360                  lfa_LEFT
                    0x9368                  LEFT
                    0x936a                  lfa_RIGHT
                    0x9372                  RIGHT
                    0x9374                  lfa_TGLCHAR
                    0x937e                  TGLCHAR
                    0x9380                  lfa_EMIT
                    0x9388                  EMIT
                    0x938a                  lfa_CR
                    0x9390                  CR
                    0x9392                  lfa_SPACE
                    0x939a                  SPACE
                    0x939c                  lfa_SPACES
                    0x93a6                  SPACES
                    0x93c6                  lfa_CLRLN
                    0x93ce                  CLRLN
                    0x93d0                  lfa_TYPE
                    0x93d8                  TYPE
                    0x93fa                  lfa_DELETE
                    0x9404                  DELETE
                    0x940c                  lfa_BACKCHAR
                    0x9418                  BACKCHAR
                    0x9422                  lfa_DIGIT
                    0x942a                  DIGIT
                    0x9444                  lfa_EXTRACT
                    0x944e                  EXTRACT
                    0x945e                  lfa_LTSHARP
                    0x9464                  LTSHARP
                    0x9474                  lfa_HOLD
                    0x947c                  HOLD
                    0x948e                  lfa_SHARP
                    0x9492                  SHARP
                    0x949e                  lfa_SHARPS
                    0x94a4                  SHARPS
                    0x94b0                  lfa_SIGN
                    0x94b8                  SIGN
                    0x94c8                  lfa_SHARPGT
                    0x94ce                  SHARPGT
                    0x94e4                  lfa_STR
                    0x94ea                  STR
                    0x94fe                  lfa_DOTR
                    0x9504                  DOTR
                    0x9516                  lfa_UDOTR
                    0x951c                  UDOTR
                    0x9532                  lfa_UDOT
                    0x9538                  UDOT
                    0x9546                  lfa_DOT
                    0x954a                  DOT
                    0x9562                  lfa_QUESTION
                    0x9566                  QUESTION
                    0x9574                  lfa_CQUESTION
                    0x957a                  CQUESTION
                    0x9582                  lfa_CHARS
                    0x958a                  CHARS
                    0x95a0                  SERIAL_INIT
                    0x95a2                  lfa_BAUD
                    0x95aa                  BAUD
                    0x95ac                  lfa_SEMIT
                    0x95b4                  SEMIT
                    0x95b6                  lfa_SGET
                    0x95be                  SGET
                    0x95c0                  SOUND_INIT
                    0x95c2                  lfa_TONE
                    0x95ca                  TONE
                    0x95cc                  STORE_INIT
                    0x95ce                  lfa_SDCINIT
                    0x95d8                  SDCINIT
                    0x95da                  lfa_RSTORE
                    0x95e4                  RSTORE
                    0x95e6                  lfa_RLOAD
                    0x95ee                  RLOAD
                    0x95f0                  lfa_ESTORE
                    0x95fa                  ESTORE
                    0x95fc                  lfa_ELOAD
                    0x9604                  ELOAD
                    0x9606                  KBD_INIT
                    0x9608                  KBD_RESET
                    0x960a                  KEYFILTER
                    0x960c                  lfa_GETKEY
                    0x9616                  GETKEY
                    0x9618                  lfa_QKEY
                    0x9620                  QKEY
                    0x9632                  lfa_KEY
                    0x9638                  KEY
                    0x9646                  lfa_NUFQ
                    0x964e                  NUFQ
                    0x9664                  HARDWARE_INIT
                    0x967c                  TICKS_INIT
                    0x967e                  SET_CLOCK
                    0x9680                  CLR_RAM
                    0x9682                  IO_LOCK
                    0x9684                  VARS_INIT
                    0x9686                  lfa_TICKS
                    0x968e                  TICKS
                    0x9690                  lfa_USEC
                    0x9698                  USEC
                    0x969a                  lfa_MSEC
                    0x96a2                  MSEC
                    0x96a4                  lfa_LFSR
                    0x96ac                  LFSR
                    0x96ae                  lfa_RAND
                    0x96b6                  RAND
                    0x96b8                  lfa_SRAND
                    0x96c0                  SRAND

__FICD            0x0557f0          0x2
 *(__FICD.sec*)
 __FICD.sec       0x0557f0          0x2 build/default/production/mcu_config_bits.o

__FPOR            0x0557f2          0x2
 *(__FPOR.sec*)
 __FPOR.sec       0x0557f2          0x2 build/default/production/mcu_config_bits.o

__FWDT            0x0557f4          0x2
 *(__FWDT.sec*)
 __FWDT.sec       0x0557f4          0x2 build/default/production/mcu_config_bits.o

__FOSC            0x0557f6          0x2
 *(__FOSC.sec*)
 __FOSC.sec       0x0557f6          0x2 build/default/production/mcu_config_bits.o

__FOSCSEL         0x0557f8          0x2
 *(__FOSCSEL.sec*)
 __FOSCSEL.sec    0x0557f8          0x2 build/default/production/mcu_config_bits.o

__FGS             0x0557fa          0x2
 *(__FGS.sec*)
 __FGS.sec        0x0557fa          0x2 FGS
                  0x0557fa                  __FGS.sec

__FUID0
 *(__FUID0.sec*)

__FUID1
 *(__FUID1.sec*)

__FUID2
 *(__FUID2.sec*)

__FUID3
 *(__FUID3.sec*)

.comment
 *(.comment)

.debug_info       0x000000         0x75
 *(.debug_info)
 .debug_info      0x000000         0x75 build/default/production/forthex.o
 *(.gnu.linkonce.wi.*)

.debug_abbrev     0x000000         0x10
 *(.debug_abbrev)
 .debug_abbrev    0x000000         0x10 build/default/production/forthex.o

.debug_line       0x000000        0x6aa
 *(.debug_line)
 .debug_line      0x000000         0x1a build/default/production/font.o
 .debug_line      0x00001a         0x1a build/default/production/mcu_config_bits.o
 .debug_line      0x000034        0x676 build/default/production/forthex.o

.debug_frame
 *(.debug_frame)

.debug_str
 *(.debug_str)

.debug_loc
 *(.debug_loc)

.debug_macinfo
 *(.debug_macinfo)

.debug_pubnames
 *(.debug_pubnames)

.debug_ranges
 *(.debug_ranges)

.debug_aranges    0x000000         0x30
 *(.debug_aranges)
 .debug_aranges
                  0x000000         0x30 build/default/production/forthex.o
                    0x0000                  WREG0 = 0x0
                    0x0000                  _WREG0 = 0x0
                    0x0002                  WREG1 = 0x2
                    0x0002                  _WREG1 = 0x2
                    0x0004                  WREG2 = 0x4
                    0x0004                  _WREG2 = 0x4
                    0x0006                  WREG3 = 0x6
                    0x0006                  _WREG3 = 0x6
                    0x0008                  WREG4 = 0x8
                    0x0008                  _WREG4 = 0x8
                    0x000a                  WREG5 = 0xa
                    0x000a                  _WREG5 = 0xa
                    0x000c                  WREG6 = 0xc
                    0x000c                  _WREG6 = 0xc
                    0x000e                  WREG7 = 0xe
                    0x000e                  _WREG7 = 0xe
                    0x0010                  WREG8 = 0x10
                    0x0010                  _WREG8 = 0x10
                    0x0012                  WREG9 = 0x12
                    0x0012                  _WREG9 = 0x12
                    0x0014                  WREG10 = 0x14
                    0x0014                  _WREG10 = 0x14
                    0x0016                  WREG11 = 0x16
                    0x0016                  _WREG11 = 0x16
                    0x0018                  WREG12 = 0x18
                    0x0018                  _WREG12 = 0x18
                    0x001a                  WREG13 = 0x1a
                    0x001a                  _WREG13 = 0x1a
                    0x001c                  WREG14 = 0x1c
                    0x001c                  _WREG14 = 0x1c
                    0x001e                  WREG15 = 0x1e
                    0x001e                  _WREG15 = 0x1e
                    0x0020                  SPLIM = 0x20
                    0x0020                  _SPLIM = 0x20
                    0x002e                  PCL = 0x2e
                    0x002e                  _PCL = 0x2e
                    0x0030                  PCH = 0x30
                    0x0030                  _PCH = 0x30
                    0x0032                  DSRPAG = 0x32
                    0x0032                  _DSRPAG = 0x32
                    0x0032                  _DSRPAGbits = 0x32
                    0x0034                  DSWPAG = 0x34
                    0x0034                  _DSWPAG = 0x34
                    0x0034                  _DSWPAGbits = 0x34
                    0x0036                  RCOUNT = 0x36
                    0x0036                  _RCOUNT = 0x36
                    0x0042                  SR = 0x42
                    0x0042                  _SR = 0x42
                    0x0042                  _SRbits = 0x42
                    0x0044                  CORCON = 0x44
                    0x0044                  _CORCON = 0x44
                    0x0044                  _CORCONbits = 0x44
                    0x0052                  DISICNT = 0x52
                    0x0052                  _DISICNT = 0x52
                    0x0054                  TBLPAG = 0x54
                    0x0054                  _TBLPAG = 0x54
                    0x0054                  _TBLPAGbits = 0x54
                    0x0058                  MSTRPR = 0x58
                    0x0058                  _MSTRPR = 0x58
                    0x0100                  TMR1 = 0x100
                    0x0100                  _TMR1 = 0x100
                    0x0102                  PR1 = 0x102
                    0x0102                  _PR1 = 0x102
                    0x0104                  T1CON = 0x104
                    0x0104                  _T1CON = 0x104
                    0x0104                  _T1CONbits = 0x104
                    0x0106                  TMR2 = 0x106
                    0x0106                  _TMR2 = 0x106
                    0x0108                  TMR3HLD = 0x108
                    0x0108                  _TMR3HLD = 0x108
                    0x010a                  TMR3 = 0x10a
                    0x010a                  _TMR3 = 0x10a
                    0x010c                  PR2 = 0x10c
                    0x010c                  _PR2 = 0x10c
                    0x010e                  PR3 = 0x10e
                    0x010e                  _PR3 = 0x10e
                    0x0110                  T2CON = 0x110
                    0x0110                  _T2CON = 0x110
                    0x0110                  _T2CONbits = 0x110
                    0x0112                  T3CON = 0x112
                    0x0112                  _T3CON = 0x112
                    0x0112                  _T3CONbits = 0x112
                    0x0114                  TMR4 = 0x114
                    0x0114                  _TMR4 = 0x114
                    0x0116                  TMR5HLD = 0x116
                    0x0116                  _TMR5HLD = 0x116
                    0x0118                  TMR5 = 0x118
                    0x0118                  _TMR5 = 0x118
                    0x011a                  PR4 = 0x11a
                    0x011a                  _PR4 = 0x11a
                    0x011c                  PR5 = 0x11c
                    0x011c                  _PR5 = 0x11c
                    0x011e                  T4CON = 0x11e
                    0x011e                  _T4CON = 0x11e
                    0x011e                  _T4CONbits = 0x11e
                    0x0120                  T5CON = 0x120
                    0x0120                  _T5CON = 0x120
                    0x0120                  _T5CONbits = 0x120
                    0x0140                  IC1CON1 = 0x140
                    0x0140                  _IC1CON1 = 0x140
                    0x0140                  _IC1CON1bits = 0x140
                    0x0142                  IC1CON2 = 0x142
                    0x0142                  _IC1CON2 = 0x142
                    0x0142                  _IC1CON2bits = 0x142
                    0x0144                  IC1BUF = 0x144
                    0x0144                  _IC1BUF = 0x144
                    0x0146                  IC1TMR = 0x146
                    0x0146                  _IC1TMR = 0x146
                    0x0148                  IC2CON1 = 0x148
                    0x0148                  _IC2CON1 = 0x148
                    0x0148                  _IC2CON1bits = 0x148
                    0x014a                  IC2CON2 = 0x14a
                    0x014a                  _IC2CON2 = 0x14a
                    0x014a                  _IC2CON2bits = 0x14a
                    0x014c                  IC2BUF = 0x14c
                    0x014c                  _IC2BUF = 0x14c
                    0x014e                  IC2TMR = 0x14e
                    0x014e                  _IC2TMR = 0x14e
                    0x0150                  IC3CON1 = 0x150
                    0x0150                  _IC3CON1 = 0x150
                    0x0150                  _IC3CON1bits = 0x150
                    0x0152                  IC3CON2 = 0x152
                    0x0152                  _IC3CON2 = 0x152
                    0x0152                  _IC3CON2bits = 0x152
                    0x0154                  IC3BUF = 0x154
                    0x0154                  _IC3BUF = 0x154
                    0x0156                  IC3TMR = 0x156
                    0x0156                  _IC3TMR = 0x156
                    0x0158                  IC4CON1 = 0x158
                    0x0158                  _IC4CON1 = 0x158
                    0x0158                  _IC4CON1bits = 0x158
                    0x015a                  IC4CON2 = 0x15a
                    0x015a                  _IC4CON2 = 0x15a
                    0x015a                  _IC4CON2bits = 0x15a
                    0x015c                  IC4BUF = 0x15c
                    0x015c                  _IC4BUF = 0x15c
                    0x015e                  IC4TMR = 0x15e
                    0x015e                  _IC4TMR = 0x15e
                    0x0200                  I2C1RCV = 0x200
                    0x0200                  _I2C1RCV = 0x200
                    0x0202                  I2C1TRN = 0x202
                    0x0202                  _I2C1TRN = 0x202
                    0x0204                  I2C1BRG = 0x204
                    0x0204                  _I2C1BRG = 0x204
                    0x0206                  I2C1CON = 0x206
                    0x0206                  _I2C1CON = 0x206
                    0x0206                  _I2C1CONbits = 0x206
                    0x0208                  I2C1STAT = 0x208
                    0x0208                  _I2C1STAT = 0x208
                    0x0208                  _I2C1STATbits = 0x208
                    0x020a                  I2C1ADD = 0x20a
                    0x020a                  _I2C1ADD = 0x20a
                    0x020c                  I2C1MSK = 0x20c
                    0x020c                  _I2C1MSK = 0x20c
                    0x0210                  I2C2RCV = 0x210
                    0x0210                  _I2C2RCV = 0x210
                    0x0212                  I2C2TRN = 0x212
                    0x0212                  _I2C2TRN = 0x212
                    0x0214                  I2C2BRG = 0x214
                    0x0214                  _I2C2BRG = 0x214
                    0x0216                  I2C2CON = 0x216
                    0x0216                  _I2C2CON = 0x216
                    0x0216                  _I2C2CONbits = 0x216
                    0x0218                  I2C2STAT = 0x218
                    0x0218                  _I2C2STAT = 0x218
                    0x0218                  _I2C2STATbits = 0x218
                    0x021a                  I2C2ADD = 0x21a
                    0x021a                  _I2C2ADD = 0x21a
                    0x021c                  I2C2MSK = 0x21c
                    0x021c                  _I2C2MSK = 0x21c
                    0x0220                  U1MODE = 0x220
                    0x0220                  _U1MODE = 0x220
                    0x0220                  _U1MODEbits = 0x220
                    0x0222                  U1STA = 0x222
                    0x0222                  _U1STA = 0x222
                    0x0222                  _U1STAbits = 0x222
                    0x0224                  U1TXREG = 0x224
                    0x0224                  _U1TXREG = 0x224
                    0x0226                  U1RXREG = 0x226
                    0x0226                  _U1RXREG = 0x226
                    0x0228                  U1BRG = 0x228
                    0x0228                  _U1BRG = 0x228
                    0x0230                  U2MODE = 0x230
                    0x0230                  _U2MODE = 0x230
                    0x0230                  _U2MODEbits = 0x230
                    0x0232                  U2STA = 0x232
                    0x0232                  _U2STA = 0x232
                    0x0232                  _U2STAbits = 0x232
                    0x0234                  U2TXREG = 0x234
                    0x0234                  _U2TXREG = 0x234
                    0x0236                  U2RXREG = 0x236
                    0x0236                  _U2RXREG = 0x236
                    0x0238                  U2BRG = 0x238
                    0x0238                  _U2BRG = 0x238
                    0x0240                  SPI1STAT = 0x240
                    0x0240                  _SPI1STAT = 0x240
                    0x0240                  _SPI1STATbits = 0x240
                    0x0242                  SPI1CON1 = 0x242
                    0x0242                  _SPI1CON1 = 0x242
                    0x0242                  _SPI1CON1bits = 0x242
                    0x0244                  SPI1CON2 = 0x244
                    0x0244                  _SPI1CON2 = 0x244
                    0x0244                  _SPI1CON2bits = 0x244
                    0x0248                  SPI1BUF = 0x248
                    0x0248                  _SPI1BUF = 0x248
                    0x0260                  SPI2STAT = 0x260
                    0x0260                  _SPI2STAT = 0x260
                    0x0260                  _SPI2STATbits = 0x260
                    0x0262                  SPI2CON1 = 0x262
                    0x0262                  _SPI2CON1 = 0x262
                    0x0262                  _SPI2CON1bits = 0x262
                    0x0264                  SPI2CON2 = 0x264
                    0x0264                  _SPI2CON2 = 0x264
                    0x0264                  _SPI2CON2bits = 0x264
                    0x0268                  SPI2BUF = 0x268
                    0x0268                  _SPI2BUF = 0x268
                    0x0300                  ADC1BUF0 = 0x300
                    0x0300                  _ADC1BUF0 = 0x300
                    0x0302                  ADC1BUF1 = 0x302
                    0x0302                  _ADC1BUF1 = 0x302
                    0x0304                  ADC1BUF2 = 0x304
                    0x0304                  _ADC1BUF2 = 0x304
                    0x0306                  ADC1BUF3 = 0x306
                    0x0306                  _ADC1BUF3 = 0x306
                    0x0308                  ADC1BUF4 = 0x308
                    0x0308                  _ADC1BUF4 = 0x308
                    0x030a                  ADC1BUF5 = 0x30a
                    0x030a                  _ADC1BUF5 = 0x30a
                    0x030c                  ADC1BUF6 = 0x30c
                    0x030c                  _ADC1BUF6 = 0x30c
                    0x030e                  ADC1BUF7 = 0x30e
                    0x030e                  _ADC1BUF7 = 0x30e
                    0x0310                  ADC1BUF8 = 0x310
                    0x0310                  _ADC1BUF8 = 0x310
                    0x0312                  ADC1BUF9 = 0x312
                    0x0312                  _ADC1BUF9 = 0x312
                    0x0314                  ADC1BUFA = 0x314
                    0x0314                  _ADC1BUFA = 0x314
                    0x0316                  ADC1BUFB = 0x316
                    0x0316                  _ADC1BUFB = 0x316
                    0x0318                  ADC1BUFC = 0x318
                    0x0318                  _ADC1BUFC = 0x318
                    0x031a                  ADC1BUFD = 0x31a
                    0x031a                  _ADC1BUFD = 0x31a
                    0x031c                  ADC1BUFE = 0x31c
                    0x031c                  _ADC1BUFE = 0x31c
                    0x031e                  ADC1BUFF = 0x31e
                    0x031e                  _ADC1BUFF = 0x31e
                    0x0320                  AD1CON1 = 0x320
                    0x0320                  _AD1CON1 = 0x320
                    0x0320                  _AD1CON1bits = 0x320
                    0x0322                  AD1CON2 = 0x322
                    0x0322                  _AD1CON2 = 0x322
                    0x0322                  _AD1CON2bits = 0x322
                    0x0324                  AD1CON3 = 0x324
                    0x0324                  _AD1CON3 = 0x324
                    0x0324                  _AD1CON3bits = 0x324
                    0x0326                  AD1CHS123 = 0x326
                    0x0326                  _AD1CHS123 = 0x326
                    0x0326                  _AD1CHS123bits = 0x326
                    0x0328                  AD1CHS0 = 0x328
                    0x0328                  _AD1CHS0 = 0x328
                    0x0328                  _AD1CHS0bits = 0x328
                    0x032e                  AD1CSSH = 0x32e
                    0x032e                  _AD1CSSH = 0x32e
                    0x032e                  _AD1CSSHbits = 0x32e
                    0x0330                  AD1CSSL = 0x330
                    0x0330                  _AD1CSSL = 0x330
                    0x0330                  _AD1CSSLbits = 0x330
                    0x0332                  AD1CON4 = 0x332
                    0x0332                  _AD1CON4 = 0x332
                    0x0332                  _AD1CON4bits = 0x332
                    0x033a                  CTMUCON1 = 0x33a
                    0x033a                  _CTMUCON1 = 0x33a
                    0x033a                  _CTMUCON1bits = 0x33a
                    0x033c                  CTMUCON2 = 0x33c
                    0x033c                  _CTMUCON2 = 0x33c
                    0x033c                  _CTMUCON2bits = 0x33c
                    0x033e                  CTMUICON = 0x33e
                    0x033e                  _CTMUICON = 0x33e
                    0x033e                  _CTMUICONbits = 0x33e
                    0x0640                  CRCCON1 = 0x640
                    0x0640                  _CRCCON1 = 0x640
                    0x0640                  _CRCCON1bits = 0x640
                    0x0642                  CRCCON2 = 0x642
                    0x0642                  _CRCCON2 = 0x642
                    0x0642                  _CRCCON2bits = 0x642
                    0x0644                  CRCXORL = 0x644
                    0x0644                  _CRCXORL = 0x644
                    0x0644                  _CRCXORLbits = 0x644
                    0x0646                  CRCXORH = 0x646
                    0x0646                  _CRCXORH = 0x646
                    0x0646                  _CRCXORHbits = 0x646
                    0x0648                  CRCDAT = 0x648
                    0x0648                  _CRCDAT = 0x648
                    0x0648                  CRCDATL = 0x648
                    0x0648                  _CRCDATL = 0x648
                    0x064a                  CRCDATH = 0x64a
                    0x064a                  _CRCDATH = 0x64a
                    0x064c                  CRCWDAT = 0x64c
                    0x064c                  _CRCWDAT = 0x64c
                    0x064c                  CRCWDATL = 0x64c
                    0x064c                  _CRCWDATL = 0x64c
                    0x064e                  CRCWDATH = 0x64e
                    0x064e                  _CRCWDATH = 0x64e
                    0x0680                  RPOR0 = 0x680
                    0x0680                  _RPOR0 = 0x680
                    0x0680                  _RPOR0bits = 0x680
                    0x0682                  RPOR1 = 0x682
                    0x0682                  _RPOR1 = 0x682
                    0x0682                  _RPOR1bits = 0x682
                    0x0684                  RPOR2 = 0x684
                    0x0684                  _RPOR2 = 0x684
                    0x0684                  _RPOR2bits = 0x684
                    0x0686                  RPOR3 = 0x686
                    0x0686                  _RPOR3 = 0x686
                    0x0686                  _RPOR3bits = 0x686
                    0x0688                  RPOR4 = 0x688
                    0x0688                  _RPOR4 = 0x688
                    0x0688                  _RPOR4bits = 0x688
                    0x06a0                  RPINR0 = 0x6a0
                    0x06a0                  _RPINR0 = 0x6a0
                    0x06a0                  _RPINR0bits = 0x6a0
                    0x06a2                  RPINR1 = 0x6a2
                    0x06a2                  _RPINR1 = 0x6a2
                    0x06a2                  _RPINR1bits = 0x6a2
                    0x06a6                  RPINR3 = 0x6a6
                    0x06a6                  _RPINR3 = 0x6a6
                    0x06a6                  _RPINR3bits = 0x6a6
                    0x06ae                  RPINR7 = 0x6ae
                    0x06ae                  _RPINR7 = 0x6ae
                    0x06ae                  _RPINR7bits = 0x6ae
                    0x06b0                  RPINR8 = 0x6b0
                    0x06b0                  _RPINR8 = 0x6b0
                    0x06b0                  _RPINR8bits = 0x6b0
                    0x06b6                  RPINR11 = 0x6b6
                    0x06b6                  _RPINR11 = 0x6b6
                    0x06b6                  _RPINR11bits = 0x6b6
                    0x06c4                  RPINR18 = 0x6c4
                    0x06c4                  _RPINR18 = 0x6c4
                    0x06c4                  _RPINR18bits = 0x6c4
                    0x06c6                  RPINR19 = 0x6c6
                    0x06c6                  _RPINR19 = 0x6c6
                    0x06c6                  _RPINR19bits = 0x6c6
                    0x06cc                  RPINR22 = 0x6cc
                    0x06cc                  _RPINR22 = 0x6cc
                    0x06cc                  _RPINR22bits = 0x6cc
                    0x06ce                  RPINR23 = 0x6ce
                    0x06ce                  _RPINR23 = 0x6ce
                    0x06ce                  _RPINR23bits = 0x6ce
                    0x0728                  NVMCON = 0x728
                    0x0728                  _NVMCON = 0x728
                    0x0728                  _NVMCONbits = 0x728
                    0x072a                  NVMADR = 0x72a
                    0x072a                  _NVMADR = 0x72a
                    0x072c                  NVMADRU = 0x72c
                    0x072c                  _NVMADRU = 0x72c
                    0x072c                  _NVMADRUbits = 0x72c
                    0x072e                  NVMKEY = 0x72e
                    0x072e                  _NVMKEY = 0x72e
                    0x0740                  RCON = 0x740
                    0x0740                  _RCON = 0x740
                    0x0740                  _RCONbits = 0x740
                    0x0742                  OSCCON = 0x742
                    0x0742                  _OSCCON = 0x742
                    0x0742                  _OSCCONbits = 0x742
                    0x0742                  OSCCONL = 0x742
                    0x0742                  _OSCCONL = 0x742
                    0x0743                  OSCCONH = 0x743
                    0x0743                  _OSCCONH = 0x743
                    0x0744                  CLKDIV = 0x744
                    0x0744                  _CLKDIV = 0x744
                    0x0744                  _CLKDIVbits = 0x744
                    0x0746                  PLLFBD = 0x746
                    0x0746                  _PLLFBD = 0x746
                    0x0746                  _PLLFBDbits = 0x746
                    0x0748                  OSCTUN = 0x748
                    0x0748                  _OSCTUN = 0x748
                    0x0748                  _OSCTUNbits = 0x748
                    0x074e                  REFOCON = 0x74e
                    0x074e                  _REFOCON = 0x74e
                    0x074e                  _REFOCONbits = 0x74e
                    0x0760                  PMD1 = 0x760
                    0x0760                  _PMD1 = 0x760
                    0x0760                  _PMD1bits = 0x760
                    0x0762                  PMD2 = 0x762
                    0x0762                  _PMD2 = 0x762
                    0x0762                  _PMD2bits = 0x762
                    0x0764                  PMD3 = 0x764
                    0x0764                  _PMD3 = 0x764
                    0x0764                  _PMD3bits = 0x764
                    0x0766                  PMD4 = 0x766
                    0x0766                  _PMD4 = 0x766
                    0x0766                  _PMD4bits = 0x766
                    0x076a                  PMD6 = 0x76a
                    0x076a                  _PMD6 = 0x76a
                    0x076c                  PMD7 = 0x76c
                    0x076c                  _PMD7 = 0x76c
                    0x076c                  _PMD7bits = 0x76c
                    0x0800                  IFS0 = 0x800
                    0x0800                  _IFS0 = 0x800
                    0x0800                  _IFS0bits = 0x800
                    0x0802                  IFS1 = 0x802
                    0x0802                  _IFS1 = 0x802
                    0x0802                  _IFS1bits = 0x802
                    0x0804                  IFS2 = 0x804
                    0x0804                  _IFS2 = 0x804
                    0x0804                  _IFS2bits = 0x804
                    0x0806                  IFS3 = 0x806
                    0x0806                  _IFS3 = 0x806
                    0x0806                  _IFS3bits = 0x806
                    0x0808                  IFS4 = 0x808
                    0x0808                  _IFS4 = 0x808
                    0x0808                  _IFS4bits = 0x808
                    0x0810                  IFS8 = 0x810
                    0x0810                  _IFS8 = 0x810
                    0x0810                  _IFS8bits = 0x810
                    0x0812                  IFS9 = 0x812
                    0x0812                  _IFS9 = 0x812
                    0x0812                  _IFS9bits = 0x812
                    0x0820                  IEC0 = 0x820
                    0x0820                  _IEC0 = 0x820
                    0x0820                  _IEC0bits = 0x820
                    0x0822                  IEC1 = 0x822
                    0x0822                  _IEC1 = 0x822
                    0x0822                  _IEC1bits = 0x822
                    0x0824                  IEC2 = 0x824
                    0x0824                  _IEC2 = 0x824
                    0x0824                  _IEC2bits = 0x824
                    0x0826                  IEC3 = 0x826
                    0x0826                  _IEC3 = 0x826
                    0x0826                  _IEC3bits = 0x826
                    0x0828                  IEC4 = 0x828
                    0x0828                  _IEC4 = 0x828
                    0x0828                  _IEC4bits = 0x828
                    0x0830                  IEC8 = 0x830
                    0x0830                  _IEC8 = 0x830
                    0x0830                  _IEC8bits = 0x830
                    0x0832                  IEC9 = 0x832
                    0x0832                  _IEC9 = 0x832
                    0x0832                  _IEC9bits = 0x832
                    0x0840                  IPC0 = 0x840
                    0x0840                  _IPC0 = 0x840
                    0x0840                  _IPC0bits = 0x840
                    0x0842                  IPC1 = 0x842
                    0x0842                  _IPC1 = 0x842
                    0x0842                  _IPC1bits = 0x842
                    0x0844                  IPC2 = 0x844
                    0x0844                  _IPC2 = 0x844
                    0x0844                  _IPC2bits = 0x844
                    0x0846                  IPC3 = 0x846
                    0x0846                  _IPC3 = 0x846
                    0x0846                  _IPC3bits = 0x846
                    0x0848                  IPC4 = 0x848
                    0x0848                  _IPC4 = 0x848
                    0x0848                  _IPC4bits = 0x848
                    0x084a                  IPC5 = 0x84a
                    0x084a                  _IPC5 = 0x84a
                    0x084a                  _IPC5bits = 0x84a
                    0x084c                  IPC6 = 0x84c
                    0x084c                  _IPC6 = 0x84c
                    0x084c                  _IPC6bits = 0x84c
                    0x084e                  IPC7 = 0x84e
                    0x084e                  _IPC7 = 0x84e
                    0x084e                  _IPC7bits = 0x84e
                    0x0850                  IPC8 = 0x850
                    0x0850                  _IPC8 = 0x850
                    0x0850                  _IPC8bits = 0x850
                    0x0852                  IPC9 = 0x852
                    0x0852                  _IPC9 = 0x852
                    0x0852                  _IPC9bits = 0x852
                    0x0858                  IPC12 = 0x858
                    0x0858                  _IPC12 = 0x858
                    0x0858                  _IPC12bits = 0x858
                    0x0860                  IPC16 = 0x860
                    0x0860                  _IPC16 = 0x860
                    0x0860                  _IPC16bits = 0x860
                    0x0866                  IPC19 = 0x866
                    0x0866                  _IPC19 = 0x866
                    0x0866                  _IPC19bits = 0x866
                    0x0886                  IPC35 = 0x886
                    0x0886                  _IPC35 = 0x886
                    0x0886                  _IPC35bits = 0x886
                    0x0888                  IPC36 = 0x888
                    0x0888                  _IPC36 = 0x888
                    0x0888                  _IPC36bits = 0x888
                    0x088a                  IPC37 = 0x88a
                    0x088a                  _IPC37 = 0x88a
                    0x088a                  _IPC37bits = 0x88a
                    0x08c0                  INTCON1 = 0x8c0
                    0x08c0                  _INTCON1 = 0x8c0
                    0x08c0                  _INTCON1bits = 0x8c0
                    0x08c2                  INTCON2 = 0x8c2
                    0x08c2                  _INTCON2 = 0x8c2
                    0x08c2                  _INTCON2bits = 0x8c2
                    0x08c4                  INTCON3 = 0x8c4
                    0x08c4                  _INTCON3 = 0x8c4
                    0x08c4                  _INTCON3bits = 0x8c4
                    0x08c6                  INTCON4 = 0x8c6
                    0x08c6                  _INTCON4 = 0x8c6
                    0x08c6                  _INTCON4bits = 0x8c6
                    0x08c8                  INTTREG = 0x8c8
                    0x08c8                  _INTTREG = 0x8c8
                    0x08c8                  _INTTREGbits = 0x8c8
                    0x0900                  OC1CON1 = 0x900
                    0x0900                  _OC1CON1 = 0x900
                    0x0900                  _OC1CON1bits = 0x900
                    0x0902                  OC1CON2 = 0x902
                    0x0902                  _OC1CON2 = 0x902
                    0x0902                  _OC1CON2bits = 0x902
                    0x0904                  OC1RS = 0x904
                    0x0904                  _OC1RS = 0x904
                    0x0906                  OC1R = 0x906
                    0x0906                  _OC1R = 0x906
                    0x0908                  OC1TMR = 0x908
                    0x0908                  _OC1TMR = 0x908
                    0x090a                  OC2CON1 = 0x90a
                    0x090a                  _OC2CON1 = 0x90a
                    0x090a                  _OC2CON1bits = 0x90a
                    0x090c                  OC2CON2 = 0x90c
                    0x090c                  _OC2CON2 = 0x90c
                    0x090c                  _OC2CON2bits = 0x90c
                    0x090e                  OC2RS = 0x90e
                    0x090e                  _OC2RS = 0x90e
                    0x0910                  OC2R = 0x910
                    0x0910                  _OC2R = 0x910
                    0x0912                  OC2TMR = 0x912
                    0x0912                  _OC2TMR = 0x912
                    0x0914                  OC3CON1 = 0x914
                    0x0914                  _OC3CON1 = 0x914
                    0x0914                  _OC3CON1bits = 0x914
                    0x0916                  OC3CON2 = 0x916
                    0x0916                  _OC3CON2 = 0x916
                    0x0916                  _OC3CON2bits = 0x916
                    0x0918                  OC3RS = 0x918
                    0x0918                  _OC3RS = 0x918
                    0x091a                  OC3R = 0x91a
                    0x091a                  _OC3R = 0x91a
                    0x091c                  OC3TMR = 0x91c
                    0x091c                  _OC3TMR = 0x91c
                    0x091e                  OC4CON1 = 0x91e
                    0x091e                  _OC4CON1 = 0x91e
                    0x091e                  _OC4CON1bits = 0x91e
                    0x0920                  OC4CON2 = 0x920
                    0x0920                  _OC4CON2 = 0x920
                    0x0920                  _OC4CON2bits = 0x920
                    0x0922                  OC4RS = 0x922
                    0x0922                  _OC4RS = 0x922
                    0x0924                  OC4R = 0x924
                    0x0924                  _OC4R = 0x924
                    0x0926                  OC4TMR = 0x926
                    0x0926                  _OC4TMR = 0x926
                    0x0a80                  CMSTAT = 0xa80
                    0x0a80                  _CMSTAT = 0xa80
                    0x0a80                  _CMSTATbits = 0xa80
                    0x0a82                  CVRCON = 0xa82
                    0x0a82                  _CVRCON = 0xa82
                    0x0a82                  _CVRCONbits = 0xa82
                    0x0a84                  CM1CON = 0xa84
                    0x0a84                  _CM1CON = 0xa84
                    0x0a84                  _CM1CONbits = 0xa84
                    0x0a86                  CM1MSKSRC = 0xa86
                    0x0a86                  _CM1MSKSRC = 0xa86
                    0x0a86                  _CM1MSKSRCbits = 0xa86
                    0x0a88                  CM1MSKCON = 0xa88
                    0x0a88                  _CM1MSKCON = 0xa88
                    0x0a88                  _CM1MSKCONbits = 0xa88
                    0x0a8a                  CM1FLTR = 0xa8a
                    0x0a8a                  _CM1FLTR = 0xa8a
                    0x0a8a                  _CM1FLTRbits = 0xa8a
                    0x0a8c                  CM2CON = 0xa8c
                    0x0a8c                  _CM2CON = 0xa8c
                    0x0a8c                  _CM2CONbits = 0xa8c
                    0x0a8e                  CM2MSKSRC = 0xa8e
                    0x0a8e                  _CM2MSKSRC = 0xa8e
                    0x0a8e                  _CM2MSKSRCbits = 0xa8e
                    0x0a90                  CM2MSKCON = 0xa90
                    0x0a90                  _CM2MSKCON = 0xa90
                    0x0a90                  _CM2MSKCONbits = 0xa90
                    0x0a92                  CM2FLTR = 0xa92
                    0x0a92                  _CM2FLTR = 0xa92
                    0x0a92                  _CM2FLTRbits = 0xa92
                    0x0a94                  CM3CON = 0xa94
                    0x0a94                  _CM3CON = 0xa94
                    0x0a94                  _CM3CONbits = 0xa94
                    0x0a96                  CM3MSKSRC = 0xa96
                    0x0a96                  _CM3MSKSRC = 0xa96
                    0x0a96                  _CM3MSKSRCbits = 0xa96
                    0x0a98                  CM3MSKCON = 0xa98
                    0x0a98                  _CM3MSKCON = 0xa98
                    0x0a98                  _CM3MSKCONbits = 0xa98
                    0x0a9a                  CM3FLTR = 0xa9a
                    0x0a9a                  _CM3FLTR = 0xa9a
                    0x0a9a                  _CM3FLTRbits = 0xa9a
                    0x0a9c                  CM4CON = 0xa9c
                    0x0a9c                  _CM4CON = 0xa9c
                    0x0a9c                  _CM4CONbits = 0xa9c
                    0x0a9e                  CM4MSKSRC = 0xa9e
                    0x0a9e                  _CM4MSKSRC = 0xa9e
                    0x0a9e                  _CM4MSKSRCbits = 0xa9e
                    0x0aa0                  CM4MSKCON = 0xaa0
                    0x0aa0                  _CM4MSKCON = 0xaa0
                    0x0aa0                  _CM4MSKCONbits = 0xaa0
                    0x0aa2                  CM4FLTR = 0xaa2
                    0x0aa2                  _CM4FLTR = 0xaa2
                    0x0aa2                  _CM4FLTRbits = 0xaa2
                    0x0ac0                  PTGCST = 0xac0
                    0x0ac0                  _PTGCST = 0xac0
                    0x0ac0                  _PTGCSTbits = 0xac0
                    0x0ac2                  PTGCON = 0xac2
                    0x0ac2                  _PTGCON = 0xac2
                    0x0ac2                  _PTGCONbits = 0xac2
                    0x0ac4                  PTGBTE = 0xac4
                    0x0ac4                  _PTGBTE = 0xac4
                    0x0ac4                  _PTGBTEbits = 0xac4
                    0x0ac6                  PTGHOLD = 0xac6
                    0x0ac6                  _PTGHOLD = 0xac6
                    0x0ac8                  PTGT0LIM = 0xac8
                    0x0ac8                  _PTGT0LIM = 0xac8
                    0x0aca                  PTGT1LIM = 0xaca
                    0x0aca                  _PTGT1LIM = 0xaca
                    0x0acc                  PTGSDLIM = 0xacc
                    0x0acc                  _PTGSDLIM = 0xacc
                    0x0ace                  PTGC0LIM = 0xace
                    0x0ace                  _PTGC0LIM = 0xace
                    0x0ad0                  PTGC1LIM = 0xad0
                    0x0ad0                  _PTGC1LIM = 0xad0
                    0x0ad2                  PTGADJ = 0xad2
                    0x0ad2                  _PTGADJ = 0xad2
                    0x0ad4                  PTGL0 = 0xad4
                    0x0ad4                  _PTGL0 = 0xad4
                    0x0ad6                  PTGQPTR = 0xad6
                    0x0ad6                  _PTGQPTR = 0xad6
                    0x0ad6                  _PTGQPTRbits = 0xad6
                    0x0ad8                  PTGQUE0 = 0xad8
                    0x0ad8                  _PTGQUE0 = 0xad8
                    0x0ad8                  _PTGQUE0bits = 0xad8
                    0x0ada                  PTGQUE1 = 0xada
                    0x0ada                  _PTGQUE1 = 0xada
                    0x0ada                  _PTGQUE1bits = 0xada
                    0x0adc                  PTGQUE2 = 0xadc
                    0x0adc                  _PTGQUE2 = 0xadc
                    0x0adc                  _PTGQUE2bits = 0xadc
                    0x0ade                  PTGQUE3 = 0xade
                    0x0ade                  _PTGQUE3 = 0xade
                    0x0ade                  _PTGQUE3bits = 0xade
                    0x0ae0                  PTGQUE4 = 0xae0
                    0x0ae0                  _PTGQUE4 = 0xae0
                    0x0ae0                  _PTGQUE4bits = 0xae0
                    0x0ae2                  PTGQUE5 = 0xae2
                    0x0ae2                  _PTGQUE5 = 0xae2
                    0x0ae2                  _PTGQUE5bits = 0xae2
                    0x0ae4                  PTGQUE6 = 0xae4
                    0x0ae4                  _PTGQUE6 = 0xae4
                    0x0ae4                  _PTGQUE6bits = 0xae4
                    0x0ae6                  PTGQUE7 = 0xae6
                    0x0ae6                  _PTGQUE7 = 0xae6
                    0x0ae6                  _PTGQUE7bits = 0xae6
                    0x0b00                  DMA0CON = 0xb00
                    0x0b00                  _DMA0CON = 0xb00
                    0x0b00                  _DMA0CONbits = 0xb00
                    0x0b02                  DMA0REQ = 0xb02
                    0x0b02                  _DMA0REQ = 0xb02
                    0x0b02                  _DMA0REQbits = 0xb02
                    0x0b04                  DMA0STAL = 0xb04
                    0x0b04                  _DMA0STAL = 0xb04
                    0x0b06                  DMA0STAH = 0xb06
                    0x0b06                  _DMA0STAH = 0xb06
                    0x0b06                  _DMA0STAHbits = 0xb06
                    0x0b08                  DMA0STBL = 0xb08
                    0x0b08                  _DMA0STBL = 0xb08
                    0x0b0a                  DMA0STBH = 0xb0a
                    0x0b0a                  _DMA0STBH = 0xb0a
                    0x0b0a                  _DMA0STBHbits = 0xb0a
                    0x0b0c                  DMA0PAD = 0xb0c
                    0x0b0c                  _DMA0PAD = 0xb0c
                    0x0b0e                  DMA0CNT = 0xb0e
                    0x0b0e                  _DMA0CNT = 0xb0e
                    0x0b0e                  _DMA0CNTbits = 0xb0e
                    0x0b10                  DMA1CON = 0xb10
                    0x0b10                  _DMA1CON = 0xb10
                    0x0b10                  _DMA1CONbits = 0xb10
                    0x0b12                  DMA1REQ = 0xb12
                    0x0b12                  _DMA1REQ = 0xb12
                    0x0b12                  _DMA1REQbits = 0xb12
                    0x0b14                  DMA1STAL = 0xb14
                    0x0b14                  _DMA1STAL = 0xb14
                    0x0b16                  DMA1STAH = 0xb16
                    0x0b16                  _DMA1STAH = 0xb16
                    0x0b16                  _DMA1STAHbits = 0xb16
                    0x0b18                  DMA1STBL = 0xb18
                    0x0b18                  _DMA1STBL = 0xb18
                    0x0b1a                  DMA1STBH = 0xb1a
                    0x0b1a                  _DMA1STBH = 0xb1a
                    0x0b1a                  _DMA1STBHbits = 0xb1a
                    0x0b1c                  DMA1PAD = 0xb1c
                    0x0b1c                  _DMA1PAD = 0xb1c
                    0x0b1e                  DMA1CNT = 0xb1e
                    0x0b1e                  _DMA1CNT = 0xb1e
                    0x0b1e                  _DMA1CNTbits = 0xb1e
                    0x0b20                  DMA2CON = 0xb20
                    0x0b20                  _DMA2CON = 0xb20
                    0x0b20                  _DMA2CONbits = 0xb20
                    0x0b22                  DMA2REQ = 0xb22
                    0x0b22                  _DMA2REQ = 0xb22
                    0x0b22                  _DMA2REQbits = 0xb22
                    0x0b24                  DMA2STAL = 0xb24
                    0x0b24                  _DMA2STAL = 0xb24
                    0x0b26                  DMA2STAH = 0xb26
                    0x0b26                  _DMA2STAH = 0xb26
                    0x0b26                  _DMA2STAHbits = 0xb26
                    0x0b28                  DMA2STBL = 0xb28
                    0x0b28                  _DMA2STBL = 0xb28
                    0x0b2a                  DMA2STBH = 0xb2a
                    0x0b2a                  _DMA2STBH = 0xb2a
                    0x0b2a                  _DMA2STBHbits = 0xb2a
                    0x0b2c                  DMA2PAD = 0xb2c
                    0x0b2c                  _DMA2PAD = 0xb2c
                    0x0b2e                  DMA2CNT = 0xb2e
                    0x0b2e                  _DMA2CNT = 0xb2e
                    0x0b2e                  _DMA2CNTbits = 0xb2e
                    0x0b30                  DMA3CON = 0xb30
                    0x0b30                  _DMA3CON = 0xb30
                    0x0b30                  _DMA3CONbits = 0xb30
                    0x0b32                  DMA3REQ = 0xb32
                    0x0b32                  _DMA3REQ = 0xb32
                    0x0b32                  _DMA3REQbits = 0xb32
                    0x0b34                  DMA3STAL = 0xb34
                    0x0b34                  _DMA3STAL = 0xb34
                    0x0b36                  DMA3STAH = 0xb36
                    0x0b36                  _DMA3STAH = 0xb36
                    0x0b36                  _DMA3STAHbits = 0xb36
                    0x0b38                  DMA3STBL = 0xb38
                    0x0b38                  _DMA3STBL = 0xb38
                    0x0b3a                  DMA3STBH = 0xb3a
                    0x0b3a                  _DMA3STBH = 0xb3a
                    0x0b3a                  _DMA3STBHbits = 0xb3a
                    0x0b3c                  DMA3PAD = 0xb3c
                    0x0b3c                  _DMA3PAD = 0xb3c
                    0x0b3e                  DMA3CNT = 0xb3e
                    0x0b3e                  _DMA3CNT = 0xb3e
                    0x0b3e                  _DMA3CNTbits = 0xb3e
                    0x0bf0                  DMAPWC = 0xbf0
                    0x0bf0                  _DMAPWC = 0xbf0
                    0x0bf0                  _DMAPWCbits = 0xbf0
                    0x0bf2                  DMARQC = 0xbf2
                    0x0bf2                  _DMARQC = 0xbf2
                    0x0bf2                  _DMARQCbits = 0xbf2
                    0x0bf4                  DMAPPS = 0xbf4
                    0x0bf4                  _DMAPPS = 0xbf4
                    0x0bf4                  _DMAPPSbits = 0xbf4
                    0x0bf6                  DMALCA = 0xbf6
                    0x0bf6                  _DMALCA = 0xbf6
                    0x0bf6                  _DMALCAbits = 0xbf6
                    0x0bf8                  DSADRL = 0xbf8
                    0x0bf8                  _DSADRL = 0xbf8
                    0x0bfa                  DSADRH = 0xbfa
                    0x0bfa                  _DSADRH = 0xbfa
                    0x0bfa                  _DSADRHbits = 0xbfa
                    0x0e00                  TRISA = 0xe00
                    0x0e00                  _TRISA = 0xe00
                    0x0e00                  _TRISAbits = 0xe00
                    0x0e02                  PORTA = 0xe02
                    0x0e02                  _PORTA = 0xe02
                    0x0e02                  _PORTAbits = 0xe02
                    0x0e04                  LATA = 0xe04
                    0x0e04                  _LATA = 0xe04
                    0x0e04                  _LATAbits = 0xe04
                    0x0e06                  ODCA = 0xe06
                    0x0e06                  _ODCA = 0xe06
                    0x0e06                  _ODCAbits = 0xe06
                    0x0e08                  CNENA = 0xe08
                    0x0e08                  _CNENA = 0xe08
                    0x0e08                  _CNENAbits = 0xe08
                    0x0e0a                  CNPUA = 0xe0a
                    0x0e0a                  _CNPUA = 0xe0a
                    0x0e0a                  _CNPUAbits = 0xe0a
                    0x0e0c                  CNPDA = 0xe0c
                    0x0e0c                  _CNPDA = 0xe0c
                    0x0e0c                  _CNPDAbits = 0xe0c
                    0x0e0e                  ANSELA = 0xe0e
                    0x0e0e                  _ANSELA = 0xe0e
                    0x0e0e                  _ANSELAbits = 0xe0e
                    0x0e10                  TRISB = 0xe10
                    0x0e10                  _TRISB = 0xe10
                    0x0e10                  _TRISBbits = 0xe10
                    0x0e12                  PORTB = 0xe12
                    0x0e12                  _PORTB = 0xe12
                    0x0e12                  _PORTBbits = 0xe12
                    0x0e14                  LATB = 0xe14
                    0x0e14                  _LATB = 0xe14
                    0x0e14                  _LATBbits = 0xe14
                    0x0e16                  ODCB = 0xe16
                    0x0e16                  _ODCB = 0xe16
                    0x0e16                  _ODCBbits = 0xe16
                    0x0e18                  CNENB = 0xe18
                    0x0e18                  _CNENB = 0xe18
                    0x0e18                  _CNENBbits = 0xe18
                    0x0e1a                  CNPUB = 0xe1a
                    0x0e1a                  _CNPUB = 0xe1a
                    0x0e1a                  _CNPUBbits = 0xe1a
                    0x0e1c                  CNPDB = 0xe1c
                    0x0e1c                  _CNPDB = 0xe1c
                    0x0e1c                  _CNPDBbits = 0xe1c
                    0x0e1e                  ANSELB = 0xe1e
                    0x0e1e                  _ANSELB = 0xe1e
                    0x0e1e                  _ANSELBbits = 0xe1e
                    0x0fa0                  _APPO = 0xfa0
                    0x0fa0                  __APPO = 0xfa0
                    0x0fa2                  _APPIN = 0xfa2
                    0x0fa2                  __APPIN = 0xfa2
                    0x0fa4                  APPS = 0xfa4
                    0x0fa4                  _APPS = 0xfa4
                    0x0fa4                  _APPSbits = 0xfa4
                    0x0fa6                  STROUTL = 0xfa6
                    0x0fa6                  _STROUTL = 0xfa6
                    0x0fa8                  STROUTH = 0xfa8
                    0x0fa8                  _STROUTH = 0xfa8
                    0x0faa                  STROVCNT = 0xfaa
                    0x0faa                  _STROVCNT = 0xfaa
                    0x0ff0                  JDATAH = 0xff0
                    0x0ff0                  _JDATAH = 0xff0
                    0x0ff2                  JDATAL = 0xff2
                    0x0ff2                  _JDATAL = 0xff2
                    0x0144                  IC1 = 0x144
                    0x0144                  _IC1 = 0x144
                    0x014c                  IC2 = 0x14c
                    0x014c                  _IC2 = 0x14c
                    0x0154                  IC3 = 0x154
                    0x0154                  _IC3 = 0x154
                    0x015c                  IC4 = 0x15c
                    0x015c                  _IC4 = 0x15c
                    0x0904                  OC1 = 0x904
                    0x0904                  _OC1 = 0x904
                    0x090e                  OC2 = 0x90e
                    0x090e                  _OC2 = 0x90e
                    0x0918                  OC3 = 0x918
                    0x0918                  _OC3 = 0x918
                    0x0922                  OC4 = 0x922
                    0x0922                  _OC4 = 0x922
                    0x0240                  SPI1 = 0x240
                    0x0240                  _SPI1 = 0x240
                    0x0260                  SPI2 = 0x260
                    0x0260                  _SPI2 = 0x260
                    0x0220                  UART1 = 0x220
                    0x0220                  _UART1 = 0x220
                    0x0230                  UART2 = 0x230
                    0x0230                  _UART2 = 0x230
START GROUP
LOAD /opt/microchip/xc16/v1.26/bin/bin/../../lib/liblega-pic30-elf.a
LOAD /opt/microchip/xc16/v1.26/bin/bin/../../lib/libm-elf.a
LOAD /opt/microchip/xc16/v1.26/bin/bin/../../lib/liblega-c-elf.a
END GROUP
OUTPUT(dist/default/production/ForthEx.X.production.elf elf32-pic30)
LOAD FGS

.user_dict          0x1900       0xa700
 .user_dict         0x1900       0xa700 build/default/production/forthex.o
                    0x1900                  _user_dict

.return.stack.bss
                    0x1000         0x80
 .return.stack.bss
                    0x1000         0x80 build/default/production/forthex.o
                    0x1000                  rstack

.param.stack.bss
                    0x1080         0x40
 .param.stack.bss
                    0x1080         0x40 build/default/production/forthex.o
                    0x1080                  pstack

.tvout.bss          0x10c0        0x60a
 .tvout.bss         0x10c0        0x60a build/default/production/forthex.o
                    0x10c3                  video_on
                    0x10c4                  xpos
                    0x10c5                  ypos
                    0x10c6                  cursor_dly
                    0x10c8                  cursor_sema
                    0x10c9                  fcursor
                    0x10ca                  _video_buffer

.buffers.bss        0x16ca         0xa0
 .buffers.bss       0x16ca         0xa0 build/default/production/forthex.o
                    0x16ca                  tib
                    0x171a                  pad

.serial.bss         0x176a         0x28
 .serial.bss        0x176a         0x28 build/default/production/forthex.o

.keyboard.bss       0x1792         0x24
 .keyboard.bss      0x1792         0x24 build/default/production/forthex.o
                    0x1792                  kbd_queue
                    0x17b2                  kbd_head

.user_vars.bss      0x17b6         0x1c
 .user_vars.bss
                    0x17b6         0x1c build/default/production/forthex.o
                    0x17b6                  _TIB
                    0x17b6                  _USER_VARS
                    0x17b8                  _PAD
                    0x17ba                  _TICKSOURCE
                    0x17bc                  _CNTSOURCE
                    0x17be                  _DP
                    0x17c0                  _STATE
                    0x17c2                  _BASE
                    0x17c4                  _TOIN
                    0x17c6                  _S0
                    0x17c8                  _R0
                    0x17ca                  _HP
                    0x17cc                  _LATEST
                    0x17ce                  _SYSLATEST

.hardware.bss       0x17d2         0x12
 .hardware.bss      0x17d2         0x12 build/default/production/forthex.o
                    0x17de                  systicks
                    0x17e0                  seed

.sound.bss          0x17e4          0x2
 .sound.bss         0x17e4          0x2 build/default/production/forthex.o
                    0x17e4                  tone_len

.start.text       0x000200         0x18
 .start.text      0x000200         0x18 build/default/production/forthex.o
                  0x000200                  __reset

.link               0xfffe          0x2 address de chargement 0x007ffe  
 .link              0xfffe          0x2 build/default/production/forthex.o
                    0xfffe                  _sys_latest

.ivt._T2Interrupt
                  0x000022          0x2
 .ivt._T2Interrupt
                  0x000022          0x2 build/default/production/forthex.o

.ivt._OC2Interrupt
                  0x000020          0x2
 .ivt._OC2Interrupt
                  0x000020          0x2 build/default/production/forthex.o

.ivt._U1RXInterrupt
                  0x00002a          0x2
 .ivt._U1RXInterrupt
                  0x00002a          0x2 build/default/production/forthex.o

.ivt._U1TXInterrupt
                  0x00002c          0x2
 .ivt._U1TXInterrupt
                  0x00002c          0x2 build/default/production/forthex.o

.ivt._CNInterrupt
                  0x00003a          0x2
 .ivt._CNInterrupt
                  0x00003a          0x2 build/default/production/forthex.o

.ivt._U2RXInterrupt
                  0x000050          0x2
 .ivt._U2RXInterrupt
                  0x000050          0x2 build/default/production/forthex.o

.ivt._MathError
                  0x00000c          0x2
 .ivt._MathError
                  0x00000c          0x2 build/default/production/forthex.o

.ivt._T1Interrupt
                  0x00001a          0x2
 .ivt._T1Interrupt
                  0x00001a          0x2 build/default/production/forthex.o

.ivt._INT1Interrupt
                  0x00003c          0x2
 .ivt._INT1Interrupt
                  0x00003c          0x2 build/default/production/forthex.o

.font.const         0x96c2        0x400 address de chargement 0x0016c2  
 .font.const        0x96c2        0x400 build/default/production/font.o
                    0x96c2                  _font

.ver_str.const      0x9ac2          0xe address de chargement 0x001ac2  
 .ver_str.const
                    0x9ac2          0xe build/default/production/forthex.o
                    0x9ac2                  _version

.forth_code.text
                  0x001ad0        0xc3e
 .forth_code.text
                  0x001ad0        0xc3e build/default/production/forthex.o
                  0x001ad0                  ENTER
                  0x001ada                  DOUSER
                  0x001ae6                  DOALIAS
                  0x001aea                  code_EXIT
                  0x001af2                  code_LIT
                  0x001afc                  code_CLIT
                  0x001b08                  code_BRANCH
                  0x001b10                  code_TBRANCH
                  0x001b1e                  code_ZBRANCH
                  0x001b2c                  code_DODO
                  0x001b3e                  code_DOLOOP
                  0x001b58                  code_IPFETCH
                  0x001b62                  code_IPSTORE
                  0x001b6c                  code_REBOOT
                  0x001b6e                  code_EXECUTE
                  0x001b76                  code_FEXEC
                  0x001b88                  code_FETCH
                  0x001b90                  code_CFETCH
                  0x001b9a                  code_TWOFETCH
                  0x001ba8                  code_STORE
                  0x001bb2                  code_CSTORE
                  0x001bbe                  code_TWOSTORE
                  0x001bcc                  code_DOI
                  0x001bd6                  code_DOJ
                  0x001be0                  code_UNLOOP
                  0x001bea                  code_DUP
                  0x001bf2                  code_TWODUP
                  0x001bfe                  code_QDUP
                  0x001c0a                  code_DROP
                  0x001c12                  code_TWODROP
                  0x001c1c                  code_SWAP
                  0x001c28                  code_TWOSWAP
                  0x001c3c                  code_ROT
                  0x001c4e                  code_NROT
                  0x001c5e                  code_OVER
                  0x001c68                  code_TWOOVER
                  0x001c76                  code_NIP
                  0x001c7e                  code_TOR
                  0x001c88                  code_RFROM
                  0x001c92                  code_RFETCH
                  0x001c9c                  code_SPFETCH
                  0x001ca8                  code_SPSTORE
                  0x001cb0                  code_RPFETCH
                  0x001cba                  code_RPSTORE
                  0x001cc4                  code_TUCK
                  0x001cd0                  code_DEPTH
                  0x001cde                  code_PICK
                  0x001cec                  code_PLUS
                  0x001cf4                  code_MINUS
                  0x001cfe                  code_ONEPLUS
                  0x001d06                  code_TWOPLUS
                  0x001d0e                  code_ONEMINUS
                  0x001d16                  code_TWOMINUS
                  0x001d1e                  code_TWOSTAR
                  0x001d26                  code_TWOSLASH
                  0x001d2e                  code_LSHIFT
                  0x001d3e                  code_RSHIFT
                  0x001d4e                  code_PLUSSTORE
                  0x001d5c                  code_MPLUS
                  0x001d6c                  code_STAR
                  0x001d7a                  code_UMSTAR
                  0x001d86                  code_DIVIDE
                  0x001d94                  code_STARSLASH
                  0x001da6                  code_STARSLASHMOD
                  0x001dba                  code_DIVMOD
                  0x001dca                  code_UMSLASHMOD
                  0x001ddc                  code_MAX
                  0x001dea                  code_MIN
                  0x001df8                  code_WITHIN
                  0x001e10                  code_EVEN
                  0x001e1e                  code_ODD
                  0x001e2c                  code_ABS
                  0x001e36                  code_AND
                  0x001e3e                  code_OR
                  0x001e46                  code_XOR
                  0x001e4e                  code_INVERT
                  0x001e56                  code_NEGATE
                  0x001e5e                  code_ZEROEQ
                  0x001e68                  code_ZEROLT
                  0x001e74                  code_ZEROGT
                  0x001e7e                  code_EQUAL
                  0x001e8e                  code_NOTEQ
                  0x001e9e                  code_LESS
                  0x001eae                  code_GREATER
                  0x001ebe                  code_ULESS
                  0x001ece                  code_UGREATER
                  0x001ede                  code_CELL
                  0x001ee8                  code_CELLPLUS
                  0x001ef0                  code_CELLS
                  0x001efa                  code_ALIGNED
                  0x001f04                  code_TOCHAR
                  0x001f12                  code_MOVE
                  0x001f2e                  code_CMOVE
                  0x001f4a                  code_SCAN
                  0x001f66                  code_FILL
                  0x001f7c                  code_CFILL
                  0x001f92                  code_MINUSTRAILING
                  0x001fa8                  code_VERSION
                  0x001fb2                  code_RAMEND
                  0x001fbc                  code_IMMED
                  0x001fc6                  code_HIDDEN
                  0x001fd0                  code_LENMASK
                  0x001fda                  code_BL
                  0x001fe4                  code_TIBSIZE
                  0x001fee                  code_PADSIZE
                  0x001ff8                  code_ULIMIT
                  0x002002                  code_DOCOL
                  0x00200c                  code_TSOURCE
                  0x00201a                  code_SRCSTORE
                  0x002028                  code_UPPER
                  0x00204a                  code_SKIP
                  0x002066                  code_FIND
                  0x0020ac                  code_INFLOOP
                  0x0020ae                  code_TVOUT_INIT
                  0x002112                  code_VIDON
                  0x00211e                  code_CURENBL
                  0x00213a                  code_CLS
                  0x002150                  code_SCRLUP
                  0x00215a                  code_SCRLDN
                  0x002164                  code_GETX
                  0x002172                  code_GETY
                  0x002180                  code_SETX
                  0x00219e                  code_SETY
                  0x0021bc                  code_LEFT
                  0x0021e2                  code_RIGHT
                  0x00220c                  code_TGLCHAR
                  0x002222                  code_EMIT
                  0x002242                  code_CR
                  0x002254                  code_SPACE
                  0x00225a                  code_CLRLN
                  0x002282                  code_SERIAL_INIT
                  0x0022bc                  code_BAUD
                  0x0022dc                  code_SEMIT
                  0x00230a                  code_SGET
                  0x00232a                  code_SOUND_INIT
                  0x002346                  code_TONE
                  0x00235c                  code_STORE_INIT
                  0x002484                  code_SDCINIT
                  0x0024ac                  code_RSTORE
                  0x0024de                  code_RLOAD
                  0x002510                  code_ESTORE
                  0x002558                  code_ELOAD
                  0x002590                  code_KBD_INIT
                  0x0025c0                  code_KBD_RESET
                  0x0025da                  code_KEYFILTER
                  0x0025f4                  code_GETKEY
                  0x002616                  code_TICKS_INIT
                  0x002632                  code_SET_CLOCK
                  0x002642                  code_CLR_RAM
                  0x00264e                  code_IO_LOCK
                  0x002656                  code_VARS_INIT
                  0x002688                  code_TICKS
                  0x002692                  code_USEC
                  0x0026a4                  code_MSEC
                  0x0026b4                  code_LFSR
                  0x0026cc                  code_RAND
                  0x0026fe                  code_SRAND

.text             0x00270e         0x96
 .text            0x00270e         0x96 build/default/production/forthex.o
                  0x00270e                  cursor_blink
                  0x00271a                  toggle_char
                  0x002730                  cursor_enable
                  0x002740                  cursor_disable
                  0x00274e                  scroll_up
                  0x002774                  scroll_down
                  0x002796                  _cold
