Microchip Technology Inc, v1.26 (A)

Tool Name:
  /opt/microchip/xc16/v1.26/bin/bin/../bin/elf-ld

Command:
  -p24EP512GP202 \
  -o \
  dist/default/production/ForthEx.X.production.elf \
  -L/opt/microchip/xc16/v1.26/bin/bin/.. \
  -L/opt/microchip/xc16/v1.26/bin/bin/../../lib \
  -L/opt/microchip/xc16/v1.26/bin/bin/../../support/PIC24E/gld \
  -L/opt/microchip/xc16/v1.26/bin/bin/../../support/PIC24F/gld \
  -L/opt/microchip/xc16/v1.26/bin/bin/../../support/PIC24H/gld \
  -L/opt/microchip/xc16/v1.26/bin/bin/../../support/dsPIC30F/gld \
  -L/opt/microchip/xc16/v1.26/bin/bin/../../support/dsPIC33E/gld \
  -L/opt/microchip/xc16/v1.26/bin/bin/../../support/dsPIC33F/gld \
  build/default/production/font.o \
  build/default/production/mcu_config_bits.o \
  build/default/production/forthex.o \
  --no-local-stack \
  --defsym=__MPLAB_BUILD=1 \
  -Tp24EP512GP202.gld.00 \
  --stack=16 \
  --check-sections \
  --no-data-init \
  --pack-data \
  --no-handles \
  --isr \
  --no-gc-sections \
  --fill-upper=0 \
  --stackguard=0 \
  --no-force-link \
  --smart-io \
  -Map=dist/default/production/ForthEx.X.production.map \
  --report-mem \
  --memorysummary \
  dist/default/production/memoryfile.xml \
  -start-group \
  --library=lega-pic30-elf \
  --library=m-elf \
  --library=lega-c-elf \
  -end-group \


Optional library libp24EP512GP202.a not found
Archive member included because of file (symbol)

/opt/microchip/xc16/v1.26/bin/bin/../../lib/liblega-pic30-elf.a(crt1_extendedep.o)
                              (__resetALT)


Selected CodeGuard Options:
  FGS:GWRP:OFF
  FGS:GCP:OFF

CodeGuard FLASH Memory:
  boot    (none)
  secure  (none)
  general 0x200 to 0x557ea

CodeGuard RAM Memory:
  general 0x1000 to 0xcfff
  secure  (none)
  boot    (none)


xc16-ld 1.26 (A)

Program Memory  [Origin = 0x200, Length = 0x555ec]

section                    address   length (PC units)   length (bytes) (dec)
-------                    -------   -----------------   --------------------
.start.text                  0x200                0x2e            0x45  (69)
.intr                        0x22e               0x19a           0x267  (615)
.sysdict                     0x3c8              0x305c          0x488a  (18570)
.font.const                 0x3424               0x400           0x600  (1536)
.str.const                  0x3824                0x66            0x99  (153)
.forth_code.text            0x388a              0x13a4          0x1d76  (7542)
.text                       0x4c2e               0x278           0x3b4  (948)
.vars_init                  0x7800                0x22            0x33  (51)

                 Total program memory used (bytes):         0x732c  (29484) 5%


Ivt Memory  [Origin = 0x4, Length = 0x1fc]

section                    address   length (PC units)   length (bytes) (dec)
-------                    -------   -----------------   --------------------
.ivt._StackError               0xa                 0x2             0x3  (3)
.ivt._MathError                0xc                 0x2             0x3  (3)
.ivt._T1Interrupt             0x1a                 0x2             0x3  (3)
.ivt._OC2Interrupt            0x20                 0x2             0x3  (3)
.ivt._T2Interrupt             0x22                 0x2             0x3  (3)
.ivt._U1RXInterrupt           0x2a                 0x2             0x3  (3)
.ivt._CNInterrupt             0x3a                 0x2             0x3  (3)
.ivt._INT1Interrupt           0x3c                 0x2             0x3  (3)
.ivt._U2RXInterrupt           0x50                 0x2             0x3  (3)


Data Memory  [Origin = 0x1000, Length = 0xc000]

section                    address      alignment gaps    total length  (dec)
-------                    -------      --------------    -------------------
.return.stack.bss           0x1000                   0            0x80  (128)
.param.stack.bss            0x1080                   0            0x40  (64)
.control.stack.bss          0x10c0                   0            0x40  (64)
.paste.bss                  0x1100                   0            0x52  (82)
.tib.bss                    0x1152                   0            0x50  (80)
.pad.bss                    0x11a2                   0            0x50  (80)
.hardware.bss               0x11f2                   0            0x44  (68)
.serial.bss                 0x1236                   0            0x26  (38)
.keyboard.bss               0x125c                   0            0x24  (36)
.sys_vars.bss               0x1280                   0            0x20  (32)
.tvout.bss                  0x12a0                   0             0xc  (12)
.heap_vars.bss              0x12ac                   0             0x6  (6)
.sound.bss                  0x12b2                   0             0x2  (2)
.boot.bss                   0x12f8                   0             0x8  (8)
.user_dict.bss              0x1300                   0          0x6d00  (27904)
.heap.bss                   0x8000                   0          0x4a00  (18944)
.tvout.buffer.bss           0xca00                   0           0x600  (1536)

                 Total data memory used (bytes):         0xbfbc  (49084) 99%


Dynamic Memory Usage

region                     address                      maximum length  (dec)
------                     -------                      ---------------------
heap                             0                                   0  (0)
stack                       0x1000                                0x80  (128)

                 Maximum dynamic memory (bytes):           0x80  (128)


External Symbols in Data Memory (by address):

                    0x1000                  rstack
                    0x1080                  pstack
                    0x10c0                  cstack
                    0x1152                  tib
                    0x11a2                  pad
                    0x11f4                  sdc_status
                    0x122a                  systicks
                    0x122c                  seed
                    0x1230                  fwarm
                    0x125c                  kbd_queue
                    0x127c                  kbd_head
                    0x1280                  _SYS_VARS
                    0x1280                  csp
                    0x1282                  _SYSLATEST
                    0x1284                  _LATEST
                    0x1286                  _TIB
                    0x1288                  _PAD
                    0x128a                  _PASTE
                    0x128c                  _TICKSOURCE
                    0x128e                  _CNTSOURCE
                    0x1290                  _DP
                    0x1292                  _BASE
                    0x1294                  _STATE
                    0x1296                  _TOIN
                    0x1298                  _HP
                    0x12a3                  video_on
                    0x12a4                  xpos
                    0x12a5                  ypos
                    0x12a6                  cursor_dly
                    0x12a8                  cursor_sema
                    0x12a9                  fcursor
                    0x12b2                  tone_len
                    0x12f8                  _boot_header
                    0x1300                  _user_dict
                    0x8000                  _heap
                    0xca00                  _video_buffer

External Symbols in Data Memory (by name):

                    0x1292                  _BASE
                    0x128e                  _CNTSOURCE
                    0x1290                  _DP
                    0x1298                  _HP
                    0x1284                  _LATEST
                    0x1288                  _PAD
                    0x128a                  _PASTE
                    0x1294                  _STATE
                    0x1282                  _SYSLATEST
                    0x1280                  _SYS_VARS
                    0x1286                  _TIB
                    0x128c                  _TICKSOURCE
                    0x1296                  _TOIN
                    0x12f8                  _boot_header
                    0x8000                  _heap
                    0x1300                  _user_dict
                    0xca00                  _video_buffer
                    0x1280                  csp
                    0x10c0                  cstack
                    0x12a6                  cursor_dly
                    0x12a8                  cursor_sema
                    0x12a9                  fcursor
                    0x1230                  fwarm
                    0x127c                  kbd_head
                    0x125c                  kbd_queue
                    0x11a2                  pad
                    0x1080                  pstack
                    0x1000                  rstack
                    0x11f4                  sdc_status
                    0x122c                  seed
                    0x122a                  systicks
                    0x1152                  tib
                    0x12b2                  tone_len
                    0x12a3                  video_on
                    0x12a4                  xpos
                    0x12a5                  ypos

External Symbols in Program Memory (by address):

                  0x000200                  __reset
                  0x00022e                  __T2Interrupt
                  0x0002ba                  __OC2Interrupt
                  0x000320                  __U1RXInterrupt
                  0x00036e                  __U2RXInterrupt
                  0x000394                  __CNInterrupt
                  0x00039e                  __MathError
                  0x0003a4                  __StackError
                  0x0003aa                  __DefaultInterrupt
                  0x0003ac                  __T1Interrupt
                  0x0003c6                  __INT1Interrupt
                  0x0003c8                  name_EXIT
                  0x0003d0                  EXIT
                  0x0003d2                  lfa_NOP
                  0x0003d8                  NOP
                  0x0003dc                  lfa_CALL
                  0x0003e4                  CALL
                  0x0003e6                  LIT
                  0x0003e8                  CLIT
                  0x0003ea                  BRANCH
                  0x0003ec                  TBRANCH
                  0x0003ee                  ZBRANCH
                  0x0003f0                  DODO
                  0x0003f2                  DOQDO
                  0x0003f4                  DOLOOP
                  0x0003f6                  DOPLOOP
                  0x0003f8                  lfa_DOI
                  0x0003fc                  DOI
                  0x0003fe                  lfa_DOL
                  0x000402                  DOL
                  0x000404                  lfa_DOJ
                  0x000408                  DOJ
                  0x00040a                  lfa_UNLOOP
                  0x000414                  UNLOOP
                  0x000416                  lfa_IPFETCH
                  0x00041c                  IPFETCH
                  0x00041e                  lfa_REBOOT
                  0x000428                  REBOOT
                  0x00042a                  lfa_EXECUTE
                  0x000434                  EXECUTE
                  0x000436                  lfa_FETCHEXEC
                  0x00043e                  FETCHEXEC
                  0x000440                  lfa_VEXEC
                  0x000448                  VEXEC
                  0x00044a                  lfa_FETCH
                  0x00044e                  FETCH
                  0x000450                  lfa_CFETCH
                  0x000456                  CFETCH
                  0x000458                  lfa_EFETCH
                  0x00045e                  EFETCH
                  0x000460                  lfa_ECFETCH
                  0x000466                  ECFETCH
                  0x000468                  lfa_TWOFETCH
                  0x00046e                  TWOFETCH
                  0x000470                  lfa_TBLFETCH
                  0x000478                  TBLFETCH
                  0x00047a                  lfa_TBLSTORE
                  0x000482                  TBLSTORE
                  0x000484                  lfa_STORE
                  0x000488                  STORE
                  0x00048a                  lfa_CSTORE
                  0x000490                  CSTORE
                  0x000492                  lfa_TWOSTORE
                  0x000498                  TWOSTORE
                  0x00049a                  lfa_DUP
                  0x0004a0                  DUP
                  0x0004a2                  lfa_TWODUP
                  0x0004aa                  TWODUP
                  0x0004ac                  lfa_QDUP
                  0x0004b4                  QDUP
                  0x0004b6                  lfa_DROP
                  0x0004be                  DROP
                  0x0004c0                  lfa_TWODROP
                  0x0004c8                  TWODROP
                  0x0004ca                  lfa_RDROP
                  0x0004d2                  RDROP
                  0x0004d4                  lfa_SWAP
                  0x0004dc                  SWAP
                  0x0004de                  lfa_TWOSWAP
                  0x0004e6                  TWOSWAP
                  0x0004e8                  lfa_ROT
                  0x0004ee                  ROT
                  0x0004f0                  lfa_NROT
                  0x0004f8                  NROT
                  0x0004fa                  lfa_OVER
                  0x000502                  OVER
                  0x000504                  lfa_TWOOVER
                  0x00050c                  TWOOVER
                  0x00050e                  lfa_NIP
                  0x000514                  NIP
                  0x000516                  lfa_TOR
                  0x00051c                  TOR
                  0x00051e                  lfa_RFROM
                  0x000524                  RFROM
                  0x000526                  lfa_RFETCH
                  0x00052c                  RFETCH
                  0x00052e                  lfa_SPFETCH
                  0x000534                  SPFETCH
                  0x000536                  lfa_SPSTORE
                  0x00053c                  SPSTORE
                  0x00053e                  lfa_RPFETCH
                  0x000544                  RPFETCH
                  0x000546                  lfa_RPSTORE
                  0x00054c                  RPSTORE
                  0x00054e                  lfa_TUCK
                  0x000556                  TUCK
                  0x000558                  lfa_DEPTH
                  0x000560                  DEPTH
                  0x000562                  lfa_PICK
                  0x00056a                  PICK
                  0x00056c                  lfa_TOCSTK
                  0x000574                  TOCSTK
                  0x000576                  lfa_CSTKFROM
                  0x00057e                  CSTKFROM
                  0x000580                  lfa_MSB
                  0x000586                  MSB
                  0x000588                  lfa_MAXINT
                  0x000592                  MAXINT
                  0x000594                  lfa_MININT
                  0x00059e                  MININT
                  0x0005a0                  lfa_HEX
                  0x0005a6                  HEX
                  0x0005b2                  lfa_DECIMAL
                  0x0005bc                  DECIMAL
                  0x0005c8                  lfa_PLUS
                  0x0005cc                  PLUS
                  0x0005ce                  lfa_MINUS
                  0x0005d2                  MINUS
                  0x0005d4                  lfa_ONEPLUS
                  0x0005da                  ONEPLUS
                  0x0005dc                  lfa_TWOPLUS
                  0x0005e2                  TWOPLUS
                  0x0005e4                  lfa_ONEMINUS
                  0x0005ea                  ONEMINUS
                  0x0005ec                  lfa_TWOMINUS
                  0x0005f2                  TWOMINUS
                  0x0005f4                  lfa_TWOSTAR
                  0x0005fa                  TWOSTAR
                  0x0005fc                  lfa_TWOSLASH
                  0x000602                  TWOSLASH
                  0x000604                  lfa_LSHIFT
                  0x00060e                  LSHIFT
                  0x000610                  lfa_RSHIFT
                  0x00061a                  RSHIFT
                  0x00061c                  lfa_PLUSSTORE
                  0x000622                  PLUSSTORE
                  0x000624                  lfa_DPLUS
                  0x00062a                  DPLUS
                  0x00062c                  lfa_MPLUS
                  0x000632                  MPLUS
                  0x000634                  lfa_STAR
                  0x000638                  STAR
                  0x00063a                  lfa_MSTAR
                  0x000640                  MSTAR
                  0x000642                  lfa_UMSTAR
                  0x000648                  UMSTAR
                  0x00064a                  lfa_UDSTAR
                  0x000650                  UDSTAR
                  0x000652                  lfa_DIVIDE
                  0x000656                  DIVIDE
                  0x000658                  lfa_MOD
                  0x00065e                  MOD
                  0x000660                  lfa_STARSLASH
                  0x000666                  STARSLASH
                  0x000668                  lfa_STARSLASHMOD
                  0x000670                  STARSLASHMOD
                  0x000672                  lfa_SLASHMOD
                  0x00067a                  SLASHMOD
                  0x00067c                  lfa_UMSLASHMOD
                  0x000686                  UMSLASHMOD
                  0x000688                  lfa_UDSLASHMOD
                  0x000692                  UDSLASHMOD
                  0x000694                  lfa_MAX
                  0x00069a                  MAX
                  0x00069c                  lfa_MIN
                  0x0006a2                  MIN
                  0x0006a4                  lfa_UMAX
                  0x0006ac                  UMAX
                  0x0006ae                  lfa_UMIN
                  0x0006b6                  UMIN
                  0x0006b8                  lfa_WITHIN
                  0x0006c2                  WITHIN
                  0x0006c4                  lfa_EVEN
                  0x0006cc                  EVEN
                  0x0006ce                  lfa_ODD
                  0x0006d4                  ODD
                  0x0006d6                  lfa_ABS
                  0x0006dc                  ABS
                  0x0006de                  lfa_DABS
                  0x0006e6                  DABS
                  0x0006e8                  lfa_STOD
                  0x0006ee                  STOD
                  0x0006f0                  lfa_QNEGATE
                  0x0006fa                  QNEGATE
                  0x0006fc                  lfa_SMSLASHREM
                  0x000706                  SMSLASHREM
                  0x00072a                  lfa_FMSLASHMOD
                  0x000734                  FMSLASHMOD
                  0x000770                  lfa_EVARPLUS
                  0x000778                  EVARPLUS
                  0x000786                  lfa_EVARMINUS
                  0x00078e                  EVARMINUS
                  0x00079c                  lfa_AND
                  0x0007a2                  AND
                  0x0007a4                  lfa_OR
                  0x0007aa                  OR
                  0x0007ac                  lfa_XOR
                  0x0007b2                  XOR
                  0x0007b4                  lfa_NOT
                  0x0007ba                  NOT
                  0x0007bc                  lfa_INVERT
                  0x0007c6                  INVERT
                  0x0007c8                  lfa_DINVERT
                  0x0007d2                  DINVERT
                  0x0007d4                  lfa_NEGATE
                  0x0007de                  NEGATE
                  0x0007e0                  lfa_DNEGATE
                  0x0007ea                  DNEGATE
                  0x0007ec                  lfa_ZEROEQ
                  0x0007f2                  ZEROEQ
                  0x0007f4                  lfa_ZERODIFF
                  0x0007fa                  ZERODIFF
                  0x0007fc                  lfa_ZEROLT
                  0x000802                  ZEROLT
                  0x000804                  lfa_ZEROGT
                  0x00080a                  ZEROGT
                  0x00080c                  lfa_EQUAL
                  0x000810                  EQUAL
                  0x000812                  lfa_NOTEQ
                  0x000818                  NOTEQ
                  0x00081a                  lfa_LESS
                  0x00081e                  LESS
                  0x000820                  lfa_GREATER
                  0x000824                  GREATER
                  0x000826                  lfa_ULESS
                  0x00082c                  ULESS
                  0x00082e                  lfa_UGREATER
                  0x000834                  UGREATER
                  0x000836                  lfa_CELL
                  0x00083e                  CELL
                  0x000840                  lfa_CELLPLUS
                  0x000848                  CELLPLUS
                  0x00084a                  lfa_CELLS
                  0x000852                  CELLS
                  0x000854                  lfa_ALIGN
                  0x00085c                  ALIGN
                  0x000876                  lfa_ALIGNED
                  0x000880                  ALIGNED
                  0x000882                  lfa_TOCHAR
                  0x00088a                  TOCHAR
                  0x00088c                  lfa_HERE
                  0x000894                  HERE
                  0x00089c                  lfa_MOVE
                  0x0008a4                  MOVE
                  0x0008a6                  lfa_CMOVE
                  0x0008ae                  CMOVE
                  0x0008b0                  lfa_CMOVETO
                  0x0008ba                  CMOVETO
                  0x0008bc                  lfa_CHARS
                  0x0008c4                  CHARS
                  0x0008c8                  lfa_CHARPLUS
                  0x0008d0                  CHARPLUS
                  0x0008d6                  lfa_CHAR
                  0x0008de                  CHAR
                  0x000904                  lfa_COMPILECHAR
                  0x00090e                  COMPILECHAR
                  0x00091c                  lfa_SCAN
                  0x000924                  SCAN
                  0x000926                  lfa_FILL
                  0x00092e                  FILL
                  0x000930                  lfa_MINUSTRAILING
                  0x00093c                  MINUSTRAILING
                  0x00093e                  lfa_STATE
                  0x000946                  STATE
                  0x00094a                  lfa_DP
                  0x000950                  DP
                  0x000954                  lfa_BASE
                  0x00095c                  BASE
                  0x000960                  lfa_SYSLATEST
                  0x00096c                  SYSLATEST
                  0x000970                  lfa_LATEST
                  0x00097a                  LATEST
                  0x00097e                  lfa_PAD
                  0x000984                  PAD
                  0x000988                  lfa_TIB
                  0x00098e                  TIB
                  0x000992                  lfa_PASTE
                  0x00099a                  PASTE
                  0x00099e                  lfa_TOIN
                  0x0009a4                  TOIN
                  0x0009a8                  lfa_HP
                  0x0009ae                  HP
                  0x0009b2                  lfa_TICKSOURCE
                  0x0009bc                  TICKSOURCE
                  0x0009c0                  lfa_CNTSOURCE
                  0x0009ca                  CNTSOURCE
                  0x0009ce                  lfa_RPBREAK
                  0x0009d8                  RPBREAK
                  0x0009dc                  lfa_DBGEN
                  0x0009e4                  DBGEN
                  0x0009e8                  lfa_SYSCONS
                  0x0009f2                  SYSCONS
                  0x0009f6                  lfa_VERSION
                  0x000a00                  VERSION
                  0x000a02                  lfa_R0
                  0x000a08                  R0
                  0x000a0a                  lfa_S0
                  0x000a10                  S0
                  0x000a12                  lfa_RAMEND
                  0x000a1c                  RAMEND
                  0x000a1e                  lfa_IMMED
                  0x000a26                  IMMED
                  0x000a28                  lfa_HIDDEN
                  0x000a32                  HIDDEN
                  0x000a34                  lfa_NMARK
                  0x000a3c                  NMARK
                  0x000a3e                  lfa_LENMASK
                  0x000a48                  LENMASK
                  0x000a4a                  lfa_BL
                  0x000a50                  BL
                  0x000a52                  lfa_TIBSIZE
                  0x000a5c                  TIBSIZE
                  0x000a5e                  lfa_PADSIZE
                  0x000a68                  PADSIZE
                  0x000a6a                  lfa_ULIMIT
                  0x000a74                  ULIMIT
                  0x000a76                  lfa_DOCOL
                  0x000a7e                  DOCOL
                  0x000a80                  lfa_TRUE
                  0x000a88                  TRUE
                  0x000a8a                  lfa_FALSE
                  0x000a92                  FALSE
                  0x000a94                  lfa_DP0
                  0x000a9a                  DP0
                  0x000a9c                  lfa_TSOURCE
                  0x000aa6                  TSOURCE
                  0x000aa8                  lfa_SRCSTORE
                  0x000ab2                  SRCSTORE
                  0x000ab4                  lfa_DECIMALQ
                  0x000ac0                  DECIMALQ
                  0x000ade                  lfa_TOBASE10
                  0x000ae8                  TOBASE10
                  0x000afc                  lfa_QDIGIT
                  0x000b06                  QDIGIT
                  0x000b4e                  lfa_QDOUBLE
                  0x000b58                  QDOUBLE
                  0x000b8e                  lfa_TONUMBER
                  0x000b98                  TONUMBER
                  0x000bf8                  lfa_QSIGN
                  0x000c00                  QSIGN
                  0x000c24                  lfa_QBASE
                  0x000c2c                  QBASE
                  0x000c82                  lfa_QNUMBER
                  0x000c8c                  QNUMBER
                  0x000ce4                  lfa_WORDS
                  0x000cec                  WORDS
                  0x000d32                  lfa_UPPER
                  0x000d3a                  UPPER
                  0x000d3c                  lfa_SKIP
                  0x000d44                  SKIP
                  0x000d46                  lfa_ADRTOIN
                  0x000d50                  ADRTOIN
                  0x000d68                  lfa_SLASHSTRING
                  0x000d72                  SLASHSTRING
                  0x000d82                  lfa_PARSE
                  0x000d8a                  PARSE
                  0x000db0                  lfa_WORD
                  0x000db8                  WORD
                  0x000dd6                  lfa_FIND
                  0x000dde                  FIND
                  0x000de0                  lfa_ACCEPT
                  0x000dea                  ACCEPT
                  0x000ea2                  lfa_COUNT
                  0x000eaa                  COUNT
                  0x000ebc                  lfa_ERROR
                  0x000ec4                  ERROR
                  0x000ee6                  lfa_TOCOUNTED
                  0x000ef2                  TOCOUNTED
                  0x000f00                  lfa_INTERPRET
                  0x000f0c                  INTERPRET
                  0x000f66                  lfa_EVAL
                  0x000f72                  EVAL
                  0x000f90                  OK
                  0x000fb6                  lfa_ABORT
                  0x000fbe                  ABORT
                  0x000fe0                  QABORT
                  0x000ff6                  lfa_ABORTQUOTE
                  0x001000                  ABORTQUOTE
                  0x00100a                  lfa_CLIP
                  0x001012                  CLIP
                  0x00102e                  lfa_GETCLIP
                  0x001038                  GETCLIP
                  0x00104e                  REPL
                  0x001076                  lfa_QUIT
                  0x00107e                  QUIT
                  0x00108e                  lfa_LPAREN
                  0x001092                  LPAREN
                  0x00109e                  lfa_COMMENT
                  0x0010a2                  COMMENT
                  0x0010ac                  lfa_NFATOLFA
                  0x0010b6                  NFATOLFA
                  0x0010c0                  lfa_NFATOCFA
                  0x0010ca                  NFATOCFA
                  0x0010dc                  lfa_TOBODY
                  0x0010e4                  TOBODY
                  0x0010fa                  lfa_CFATONFA
                  0x001104                  CFATONFA
                  0x00116e                  lfa_QEMPTY
                  0x001178                  QEMPTY
                  0x001182                  lfa_IMMEDIATE
                  0x00118e                  IMMEDIATE
                  0x0011a8                  lfa_HIDE
                  0x0011b0                  HIDE
                  0x0011ca                  NAMEMARK
                  0x0011e4                  lfa_REVEAL
                  0x0011ee                  REVEAL
                  0x00120a                  lfa_ALLOT
                  0x001212                  ALLOT
                  0x00121a                  lfa_COMMA
                  0x00121e                  COMMA
                  0x00122c                  lfa_CCOMMA
                  0x001232                  CCOMMA
                  0x001240                  lfa_TICK
                  0x001244                  TICK
                  0x001270                  lfa_COMPILETICK
                  0x001276                  COMPILETICK
                  0x001284                  lfa_MARKADDR
                  0x00128c                  MARKADDR
                  0x001294                  lfa_BACKJUMP
                  0x0012a0                  BACKJUMP
                  0x0012ac                  lfa_MARKSLOT
                  0x0012b4                  MARKSLOT
                  0x0012c2                  lfa_FOREJUMP
                  0x0012ce                  FOREJUMP
                  0x0012e0                  lfa_LBRACKET
                  0x0012e4                  LBRACKET
                  0x0012f0                  lfa_RBRACKET
                  0x0012f4                  RBRACKET
                  0x001300                  lfa_CFA_COMMA
                  0x001308                  CFA_COMMA
                  0x001318                  lfa_QWORD
                  0x001320                  QWORD
                  0x00133e                  lfa_POSTONE
                  0x00134a                  POSTONE
                  0x001366                  lfa_LITERAL
                  0x001370                  LITERAL
                  0x001382                  DOSTR
                  0x001398                  STRQUOTE
                  0x0013a0                  RT_CQUOTE
                  0x0013a6                  DOTSTR
                  0x0013b0                  SLIT
                  0x0013bc                  STRCOMPILE
                  0x0013ca                  lfa_SQUOTE
                  0x0013d0                  SQUOTE
                  0x0013dc                  lfa_CQUOTE
                  0x0013e2                  CQUOTE
                  0x0013ee                  lfa_DOTQUOTE
                  0x0013f4                  DOTQUOTE
                  0x00140c                  lfa_RECURSE
                  0x001416                  RECURSE
                  0x001422                  lfa_DO
                  0x001428                  DO
                  0x00143c                  lfa_QDO
                  0x001442                  QDO
                  0x001464                  lfa_LEAVE
                  0x00146c                  LEAVE
                  0x00147e                  FIXLEAVE
                  0x0014a0                  lfa_LOOP
                  0x0014a8                  LOOP
                  0x0014b4                  lfa_PLUSLOOP
                  0x0014bc                  PLUSLOOP
                  0x0014c8                  lfa_BEGIN
                  0x0014d0                  BEGIN
                  0x0014d8                  lfa_AGAIN
                  0x0014e0                  AGAIN
                  0x0014ec                  lfa_UNTIL
                  0x0014f4                  UNTIL
                  0x001500                  lfa_IIF
                  0x001506                  IIF
                  0x001512                  lfa_THEN
                  0x00151a                  THEN
                  0x001522                  lfa_ELSE
                  0x00152a                  ELSE
                  0x00153a                  lfa_WHILE
                  0x001542                  WHILE
                  0x001550                  lfa_REPEAT
                  0x00155a                  REPEAT
                  0x001568                  lfa_CASE
                  0x001570                  CASE
                  0x00157a                  lfa_OF
                  0x001580                  OF
                  0x001594                  lfa_ENDOF
                  0x00159c                  ENDOF
                  0x0015ac                  lfa_ENDCASE
                  0x0015b6                  ENDCASE
                  0x0015cc                  lfa_QCOMPILE
                  0x0015d8                  QCOMPILE
                  0x00160a                  lfa_QNAME
                  0x001612                  QNAME
                  0x001626                  lfa_COLON_NO_NAME
                  0x001630                  COLON_NO_NAME
                  0x00163c                  lfa_EXITCOMMA
                  0x001644                  EXITCOMMA
                  0x00164c                  lfa_HEADER
                  0x001656                  HEADER
                  0x001680                  lfa_FORGET
                  0x00168a                  FORGET
                  0x0016c6                  lfa_MARKER
                  0x0016d0                  MARKER
                  0x0016ea                  RT_MARKER
                  0x0016fe                  lfa_COLON
                  0x001702                  COLON
                  0x00170e                  lfa_CREATE
                  0x001718                  CREATE
                  0x00172a                  RT_DOES
                  0x001742                  lfa_DOESTO
                  0x00174a                  DOESTO
                  0x001764                  lfa_VARIABLE
                  0x001770                  VARIABLE
                  0x00177c                  lfa_CONSTANT
                  0x001788                  CONSTANT
                  0x001798                  lfa_SEMICOLON
                  0x00179c                  SEMICOLON
                  0x0017a8                  NOINIT
                  0x0017cc                  DEFEREXEC
                  0x0017d4                  lfa_DEFER
                  0x0017dc                  DEFER
                  0x0017ea                  lfa_DEFERSTORE
                  0x0017f4                  DEFERSTORE
                  0x0017fc                  lfa_DEFERFETCH
                  0x001806                  DEFERFETCH
                  0x00180e                  lfa_IS
                  0x001814                  IS
                  0x00181e                  lfa_ACTIONOF
                  0x00182a                  ACTIONOF
                  0x001834                  lfa_DOTPAREN
                  0x00183a                  DOTPAREN
                  0x001846                  lfa_TWOTOR
                  0x00184c                  TWOTOR
                  0x00185c                  lfa_TWORFROM
                  0x001862                  TWORFROM
                  0x001872                  lfa_TWORFETCH
                  0x001878                  TWORFETCH
                  0x00188c                  lfa_QDSP
                  0x001894                  QDSP
                  0x0018d8                  lfa_DOTS
                  0x0018de                  DOTS
                  0x001908                  lfa_DOTRTN
                  0x001910                  DOTRTN
                  0x00193e                  lfa_DUMP
                  0x001946                  DUMP
                  0x00199e                  lfa_DEBUG
                  0x0019a6                  DEBUG
                  0x0019ae                  lfa_BREAK
                  0x0019b6                  BREAK
                  0x0019e8                  lfa_RESUME
                  0x0019f2                  RESUME
                  0x001a12                  lfa_SCRBUF
                  0x001a1c                  SCRBUF
                  0x001a1e                  lfa_HTAB
                  0x001a26                  HTAB
                  0x001a28                  TVOUT_INIT
                  0x001a2a                  lfa_VIDEO
                  0x001a32                  VIDEO
                  0x001a34                  lfa_CURENBL
                  0x001a3e                  CURENBL
                  0x001a40                  lfa_CLS
                  0x001a46                  CLS
                  0x001a48                  lfa_SCRLUP
                  0x001a52                  SCRLUP
                  0x001a54                  lfa_SCRLDN
                  0x001a5e                  SCRLDN
                  0x001a60                  lfa_GETX
                  0x001a68                  GETX
                  0x001a6a                  lfa_GETY
                  0x001a72                  GETY
                  0x001a74                  lfa_SETX
                  0x001a7c                  SETX
                  0x001a7e                  lfa_SETY
                  0x001a86                  SETY
                  0x001a88                  lfa_CURADR
                  0x001a92                  CURADR
                  0x001a94                  lfa_CURPOS
                  0x001a9e                  CURPOS
                  0x001aa6                  lfa_LCGETCUR
                  0x001ab2                  LCGETCUR
                  0x001aba                  lfa_SCRCHAR
                  0x001ac4                  SCRCHAR
                  0x001ac6                  lfa_CHRTOSCR
                  0x001ad0                  CHRTOSCR
                  0x001ad2                  lfa_INVLN
                  0x001ada                  INVLN
                  0x001adc                  lfa_LCLEFT
                  0x001ae6                  LCLEFT
                  0x001ae8                  lfa_LCRIGHT
                  0x001af4                  LCRIGHT
                  0x001af6                  lfa_LCHOME
                  0x001b00                  LCHOME
                  0x001b02                  lfa_LCEND
                  0x001b0c                  LCEND
                  0x001b52                  lfa_LCUP
                  0x001b5a                  LCUP
                  0x001b5c                  lfa_LCDOWN
                  0x001b66                  LCDOWN
                  0x001b68                  lfa_TGLCHAR
                  0x001b72                  TGLCHAR
                  0x001b74                  lfa_PUTC
                  0x001b7c                  PUTC
                  0x001b7e                  lfa_CR
                  0x001b84                  CR
                  0x001b86                  lfa_NEXTCOLON
                  0x001b94                  NEXTCOLON
                  0x001bd6                  lfa_LCDEL
                  0x001be0                  LCDEL
                  0x001c16                  lfa_LCINSRT
                  0x001c22                  LCINSRT
                  0x001c64                  lfa_BACKDEL
                  0x001c6e                  BACKDEL
                  0x001c7c                  lfa_CLRLN
                  0x001c84                  CLRLN
                  0x001c86                  lfa_LCBEL
                  0x001c90                  LCBEL
                  0x001c9e                  lfa_LCEMIT
                  0x001ca8                  LCEMIT
                  0x001dc6                  lfa_LCEMITQ
                  0x001dd2                  LCEMITQ
                  0x001dd4                  lfa_TVPAGE
                  0x001dde                  TVPAGE
                  0x001de4                  lfa_DIGIT
                  0x001dec                  DIGIT
                  0x001e06                  lfa_EXTRACT
                  0x001e10                  EXTRACT
                  0x001e1a                  lfa_LTSHARP
                  0x001e20                  LTSHARP
                  0x001e30                  lfa_HOLD
                  0x001e38                  HOLD
                  0x001e4a                  lfa_SHARP
                  0x001e4e                  SHARP
                  0x001e5a                  lfa_SHARPS
                  0x001e60                  SHARPS
                  0x001e6e                  lfa_SIGN
                  0x001e76                  SIGN
                  0x001e86                  lfa_SHARPGT
                  0x001e8c                  SHARPGT
                  0x001ea2                  lfa_STR
                  0x001ea8                  STR
                  0x001ebc                  lfa_COLFILL
                  0x001ec6                  COLFILL
                  0x001edc                  lfa_DOTR
                  0x001ee2                  DOTR
                  0x001eee                  lfa_UDOTR
                  0x001ef4                  UDOTR
                  0x001f02                  lfa_UDOT
                  0x001f08                  UDOT
                  0x001f12                  lfa_DOT
                  0x001f16                  DOT
                  0x001f2c                  lfa_QUESTION
                  0x001f30                  QUESTION
                  0x001f3e                  lfa_CQUESTION
                  0x001f44                  CQUESTION
                  0x001f4c                  lfa_UDDOT
                  0x001f52                  UDDOT
                  0x001f60                  lfa_DDOT
                  0x001f66                  DDOT
                  0x001f7e                  lfa_DDOTR
                  0x001f84                  DDOTR
                  0x001f94                  lfa_UDDOTR
                  0x001f9c                  UDDOTR
                  0x001fb0                  SERIAL_INIT
                  0x001fb2                  lfa_SERENBL
                  0x001fbc                  SERENBL
                  0x001fbe                  lfa_BAUD
                  0x001fc6                  BAUD
                  0x001fc8                  lfa_SPUTC
                  0x001fd0                  SPUTC
                  0x001fd2                  lfa_SGETC
                  0x001fda                  SGETC
                  0x001fdc                  lfa_SREADYQ
                  0x001fe6                  SREADYQ
                  0x001fe8                  lfa_SGETCQ
                  0x001ff2                  SGETCQ
                  0x001ff4                  SOUND_INIT
                  0x001ff6                  lfa_TONE
                  0x001ffe                  TONE
                  0x002000                  STORE_INIT
                  0x002002                  lfa_XBLKTOADR
                  0x00200e                  XBLKTOADR
                  0x00201a                  lfa_XWRITE
                  0x002024                  XWRITE
                  0x002026                  lfa_XREAD
                  0x00202e                  XREAD
                  0x002030                  lfa_QWIP
                  0x002038                  QWIP
                  0x00203a                  lfa_WWIP
                  0x002042                  WWIP
                  0x00204c                  lfa_EEBLKTOADR
                  0x002058                  EEBLKTOADR
                  0x002064                  lfa_RAMTOEE
                  0x00206e                  RAMTOEE
                  0x002070                  lfa_EEREAD
                  0x00207a                  EEREAD
                  0x00207c                  lfa_EPAGE
                  0x002084                  EPAGE
                  0x002086                  lfa_ESECTOR
                  0x002090                  ESECTOR
                  0x002092                  lfa_EALL
                  0x00209a                  EALL
                  0x00209c                  lfa_EERASE
                  0x0020a6                  EERASE
                  0x0020a8                  lfa_EEWRITE
                  0x0020b2                  EEWRITE
                  0x0020e2                  lfa_DEVID
                  0x0020ea                  DEVID
                  0x0020ec                  lfa_FN_READ
                  0x0020f6                  FN_READ
                  0x0020f8                  lfa_FN_WRITE
                  0x002104                  FN_WRITE
                  0x002106                  lfa_FN_BLKTOADR
                  0x002114                  FN_BLKTOADR
                  0x002116                  lfa_XRAM
                  0x00211e                  XRAM
                  0x002128                  lfa_EEPROM
                  0x002132                  EEPROM
                  0x00213c                  KBD_INIT
                  0x00213e                  KBD_RESET
                  0x002140                  lfa_LCEKEYQ
                  0x00214c                  LCEKEYQ
                  0x00214e                  lfa_LCEKEY
                  0x002158                  LCEKEY
                  0x00215a                  lfa_LCFILTER
                  0x002166                  LCFILTER
                  0x002168                  lfa_LCKEYQ
                  0x002172                  LCKEYQ
                  0x00218e                  lfa_LCKEY
                  0x002198                  LCKEY
                  0x0021fe                  lfa_XON
                  0x002204                  XON
                  0x002206                  lfa_XOFF
                  0x00220e                  XOFF
                  0x002250                  lfa_VTFILTER
                  0x00225c                  VTFILTER
                  0x00228a                  lfa_VTKEYQ
                  0x002294                  VTKEYQ
                  0x0022b0                  lfa_VTKEY
                  0x0022ba                  VTKEY
                  0x0022c6                  lfa_VTEMIT
                  0x0022d0                  VTEMIT
                  0x002358                  lfa_VTATXY
                  0x002364                  VTATXY
                  0x002368                  lfa_VTPAGE
                  0x002372                  VTPAGE
                  0x00237c                  lfa_VTDELBACK
                  0x00238a                  VTDELBACK
                  0x00239e                  lfa_VTDELLN
                  0x0023aa                  VTDELLN
                  0x0023cc                  lfa_DSR
                  0x0023d2                  DSR
                  0x0023ee                  lfa_VTGETP
                  0x0023f8                  VTGETP
                  0x00242a                  lfa_ESCSEQQ
                  0x002434                  ESCSEQQ
                  0x002456                  lfa_VTGETCUR
                  0x002462                  VTGETCUR
                  0x002498                  lfa_VTCRLF
                  0x0024a2                  VTCRLF
                  0x0024b2                  lfa_LCCONS
                  0x0024bc                  LCCONS
                  0x0024d2                  lfa_SERCONS
                  0x0024dc                  SERCONS
                  0x0024f2                  lfa_LOCAL
                  0x0024fa                  LOCAL
                  0x002500                  lfa_REMOTE
                  0x00250a                  REMOTE
                  0x002510                  lfa_CONSOLE
                  0x00251a                  CONSOLE
                  0x002528                  lfa_KEY
                  0x00252e                  KEY
                  0x00253c                  lfa_KEYQ
                  0x002544                  KEYQ
                  0x002552                  lfa_EKEY
                  0x00255a                  EKEY
                  0x002568                  lfa_EKEYQ
                  0x002570                  EKEYQ
                  0x00257e                  lfa_EMIT
                  0x002586                  EMIT
                  0x002594                  lfa_EMITQ
                  0x00259c                  EMITQ
                  0x0025aa                  lfa_ATXY
                  0x0025b2                  ATXY
                  0x0025c0                  lfa_PAGE
                  0x0025c8                  PAGE
                  0x0025d6                  lfa_EKEYTOCHAR
                  0x0025e2                  EKEYTOCHAR
                  0x0025f0                  lfa_SPACE
                  0x0025f8                  SPACE
                  0x002602                  lfa_SPACES
                  0x00260c                  SPACES
                  0x00262c                  lfa_CLEARLN
                  0x002636                  CLEARLN
                  0x002640                  lfa_TYPE
                  0x002648                  TYPE
                  0x00266a                  lfa_DELETE
                  0x002674                  DELETE
                  0x00267e                  lfa_DELBACK
                  0x002688                  DELBACK
                  0x002692                  lfa_DELLINE
                  0x00269c                  DELLINE
                  0x0026a6                  lfa_NEWLINE
                  0x0026b0                  NEWLINE
                  0x0026ba                  lfa_GETCUR
                  0x0026c4                  GETCUR
                  0x0026d2                  lfa_MFLASH
                  0x0026dc                  MFLASH
                  0x0026e8                  lfa_FBUFFER
                  0x0026f2                  FBUFFER
                  0x002704                  lfa_TBLFETCHL
                  0x00270c                  TBLFETCHL
                  0x00270e                  lfa_TBLFETCHH
                  0x002716                  TBLFETCHH
                  0x002718                  lfa_IFETCH
                  0x00271e                  IFETCH
                  0x002720                  lfa_FADDR
                  0x002728                  FADDR
                  0x00272a                  lfa_FNEXT
                  0x002732                  FNEXT
                  0x002734                  WRITE_LATCH
                  0x002736                  FLASH_OP
                  0x002738                  lfa_UDREL
                  0x002740                  UDREL
                  0x002742                  lfa_QFLIMITS
                  0x00274e                  QFLIMITS
                  0x002778                  lfa_ROWTOFADR
                  0x002784                  ROWTOFADR
                  0x00278e                  lfa_FERASE
                  0x002798                  FERASE
                  0x0027c4                  lfa_TOFLASH
                  0x0027ce                  TOFLASH
                  0x0027e8                  lfa_RAMTOFLASH
                  0x0027f4                  RAMTOFLASH
                  0x002828                  lfa_FLASHTORAM
                  0x002834                  FLASHTORAM
                  0x002874                  lfa_IMGHEAD
                  0x00287e                  IMGHEAD
                  0x002880                  lfa_MAGIC
                  0x002888                  MAGIC
                  0x00288a                  lfa_IMGROW
                  0x002894                  IMGROW
                  0x002896                  lfa_IMGSIGN
                  0x0028a0                  IMGSIGN
                  0x0028aa                  lfa_IMGLATST
                  0x0028b6                  IMGLATST
                  0x0028c0                  lfa_IMGDP
                  0x0028c8                  IMGDP
                  0x0028d2                  lfa_IMGSIZE
                  0x0028dc                  IMGSIZE
                  0x0028e6                  lfa_SETHEADER
                  0x0028f2                  SETHEADER
                  0x002914                  lfa_IMGADDR
                  0x00291e                  IMGADDR
                  0x00292a                  lfa_QIMG
                  0x002932                  QIMG
                  0x002948                  lfa_QSIZE
                  0x002950                  QSIZE
                  0x002958                  lfa_ERASEROWS
                  0x002964                  ERASEROWS
                  0x002996                  lfa_IMGSAVE
                  0x0029a0                  IMGSAVE
                  0x0029be                  lfa_IMGLOAD
                  0x0029c8                  IMGLOAD
                  0x002a0a                  lfa_SDCINIT
                  0x002a14                  SDCINIT
                  0x002a16                  lfa_QSDC
                  0x002a1e                  QSDC
                  0x002a20                  lfa_QSDCOK
                  0x002a2a                  QSDCOK
                  0x002a3c                  lfa_SDCREAD
                  0x002a46                  SDCREAD
                  0x002a48                  lfa_SDCWRITE
                  0x002a54                  SDCWRITE
                  0x002a56                  lfa_NSECTOR
                  0x002a60                  NSECTOR
                  0x002a88                  lfa_IMGTOSDC
                  0x002a92                  IMGTOSDC
                  0x002ad6                  lfa_SDCTOIMG
                  0x002ae0                  SDCTOIMG
                  0x002b26                  lfa_SDFIRST
                  0x002b30                  SDFIRST
                  0x002b32                  lfa_SDBLKTOADR
                  0x002b3e                  SDBLKTOADR
                  0x002b50                  lfa_SDCARD
                  0x002b5a                  SDCARD
                  0x002b64                  lfa_ESTRFROM
                  0x002b6c                  ESTRFROM
                  0x002b7a                  lfa_STRFROM
                  0x002b82                  STRFROM
                  0x002b90                  lfa_CSTRTORAM
                  0x002b9c                  CSTRTORAM
                  0x002bc6                  lfa_STREQUAL
                  0x002bce                  STREQUAL
                  0x002c14                  lfa_HEAP_INIT
                  0x002c20                  HEAP_INIT
                  0x002c22                  lfa_HEAPSIZE
                  0x002c2e                  HEAPSIZE
                  0x002c30                  lfa_HEAPFREE
                  0x002c3c                  HEAPFREE
                  0x002c3e                  FREE_BYTES_STORE
                  0x002c40                  lfa_FREELIST
                  0x002c4c                  FREELIST
                  0x002c4e                  lfa_USEDLIST
                  0x002c5a                  USEDLIST
                  0x002c5c                  lfa_BSIZEFETCH
                  0x002c66                  BSIZEFETCH
                  0x002c72                  lfa_BSIZESTORE
                  0x002c7c                  BSIZESTORE
                  0x002c88                  lfa_NLNKFETCH
                  0x002c90                  NLNKFETCH
                  0x002c9c                  lfa_PLNKFETCH
                  0x002ca4                  PLNKFETCH
                  0x002cb0                  lfa_NLNKSTORE
                  0x002cb8                  NLNKSTORE
                  0x002cc4                  lfa_PLNKSTORE
                  0x002ccc                  PLNKSTORE
                  0x002cd8                  lfa_UNLINK
                  0x002ce2                  UNLINK
                  0x002d30                  lfa_PREPEND
                  0x002d3a                  PREPEND
                  0x002d54                  lfa_QFIT
                  0x002d5c                  QFIT
                  0x002d66                  lfa_SMALLBLK
                  0x002d72                  SMALLBLK
                  0x002d9a                  lfa_SMALLEST
                  0x002da6                  SMALLEST
                  0x002dd2                  lfa_CUT
                  0x002dd8                  CUT
                  0x002e26                  lfa_MALLOC
                  0x002e30                  MALLOC
                  0x002e60                  lfa_QINLIST
                  0x002e6a                  QINLIST
                  0x002e88                  lfa_FREE
                  0x002e90                  FREE
                  0x002ed4                  lfa_BLK
                  0x002eda                  BLK
                  0x002edc                  lfa_SCR
                  0x002ee2                  SCR
                  0x002ee4                  lfa_BLKDEV
                  0x002eee                  BLKDEV
                  0x002ef0                  lfa_BUFARRAY
                  0x002efc                  BUFARRAY
                  0x002efe                  STRUCADR
                  0x002f0c                  DATA
                  0x002f18                  BLOCK_INIT
                  0x002f3e                  OWNQ
                  0x002f66                  BUFFEREDQ
                  0x002f94                  NOTUSED
                  0x002fc0                  OLDEST
                  0x002fee                  UPDATEDFETCH
                  0x002ffa                  BLKDEVFETCH
                  0x003002                  lfa_BLKTOADR
                  0x00300c                  BLKTOADR
                  0x003024                  lfa_FIELDS
                  0x00302e                  FIELDS
                  0x003052                  lfa_UPDATE
                  0x00305c                  UPDATE
                  0x003084                  lfa_NOUPDATE
                  0x003090                  NOUPDATE
                  0x0030a0                  lfa_DATAOUT
                  0x0030a8                  DATAOUT
                  0x0030d2                  lfa_INDATA
                  0x0030da                  INDATA
                  0x0030f8                  lfa_ASSIGN
                  0x003102                  ASSIGN
                  0x00314e                  lfa_BUFFER
                  0x003158                  BUFFER
                  0x003160                  lfa_BLOCK
                  0x003168                  BLOCK
                  0x003174                  lfa_LOAD
                  0x00317c                  LOAD
                  0x003188                  lfa_SAVEBUFFERS
                  0x003198                  SAVEBUFFERS
                  0x0031b0                  lfa_EMPTYBUFFERS
                  0x0031c0                  EMPTYBUFFERS
                  0x0031e8                  lfa_FLUSH
                  0x0031f0                  FLUSH
                  0x0031f8                  lfa_LIST
                  0x003200                  LIST
                  0x003254                  QAUTORUN
                  0x003268                  QCOLD
                  0x003274                  HARDWARE_INIT
                  0x003292                  TICKS_INIT
                  0x003294                  SET_CLOCK
                  0x003296                  CLR_LOW_RAM
                  0x003298                  CLR_RAM
                  0x00329a                  IO_LOCK
                  0x00329c                  VARS_INIT
                  0x00329e                  lfa_TICKS
                  0x0032a6                  TICKS
                  0x0032a8                  lfa_USEC
                  0x0032b0                  USEC
                  0x0032b2                  lfa_MS
                  0x0032b8                  MS
                  0x0032e2                  lfa_LFSR
                  0x0032ea                  LFSR
                  0x0032ec                  lfa_RAND
                  0x0032f4                  RAND
                  0x0032f6                  lfa_SRAND
                  0x0032fe                  SRAND
                  0x003300                  lfa_CLEAR
                  0x003308                  CLEAR
                  0x00331a                  lfa_UNUSED
                  0x003324                  UNUSED
                  0x00332e                  lfa_CRCENBL
                  0x003338                  CRCENBL
                  0x00333a                  lfa_QCRCFIFO
                  0x003346                  QCRCFIFO
                  0x003348                  lfa_CRCLE
                  0x003350                  CRCLE
                  0x003352                  lfa_CRCSTART
                  0x00335e                  CRCSTART
                  0x003360                  lfa_CRCDW
                  0x003368                  CRCDW
                  0x00336a                  lfa_CRCPL
                  0x003372                  CRCPL
                  0x003374                  lfa_CRCPOLY
                  0x00337e                  CRCPOLY
                  0x003380                  lfa_CRCFETCH
                  0x003388                  CRCFETCH
                  0x00338a                  lfa_CRCDFETCH
                  0x003392                  CRCDFETCH
                  0x003394                  lfa_CRC0
                  0x00339c                  CRC0
                  0x00339e                  lfa_CRCCSTORE
                  0x0033a6                  CRCCSTORE
                  0x0033a8                  lfa_CRCSTORE
                  0x0033b0                  CRCSTORE
                  0x0033b2                  lfa_CRCDSTORE
                  0x0033ba                  CRCDSTORE
                  0x0033bc                  lfa_CRCDONE
                  0x0033c6                  CRCDONE
                  0x0033c8                  lfa_CRC16
                  0x0033d0                  CRC16
                  0x0033f6                  lfa_CRC7
                  0x0033fe                  CRC7
                  0x003424                  _font
                  0x003824                  _version
                  0x003831                  _math_error
                  0x003847                  _user_aborted
                  0x003860                  _stack_reset
                  0x003873                  _unknown_reset
                  0x00388a                  ENTER
                  0x003894                  DOUSER
                  0x0038a0                  DOVAR
                  0x0038aa                  DOCONST
                  0x0038b4                  code_EXIT
                  0x0038bc                  code_CALL
                  0x0038cc                  code_LIT
                  0x0038d6                  code_CLIT
                  0x0038e2                  code_BRANCH
                  0x0038ea                  code_TBRANCH
                  0x0038f8                  code_ZBRANCH
                  0x003906                  code_DODO
                  0x003918                  code_DOQDO
                  0x00392a                  code_DOLOOP
                  0x003944                  code_DOPLOOP
                  0x003962                  code_DOI
                  0x00396c                  code_DOL
                  0x003976                  code_DOJ
                  0x003980                  code_UNLOOP
                  0x00398a                  code_IPFETCH
                  0x003994                  code_REBOOT
                  0x003996                  code_EXECUTE
                  0x00399e                  code_FETCHEXEC
                  0x0039a2                  code_VEXEC
                  0x0039ac                  code_FETCH
                  0x0039b4                  code_CFETCH
                  0x0039be                  code_EFETCH
                  0x0039cc                  code_ECFETCH
                  0x0039dc                  code_TWOFETCH
                  0x0039ea                  code_TBLFETCH
                  0x0039fa                  code_TBLSTORE
                  0x003a0e                  code_STORE
                  0x003a18                  code_CSTORE
                  0x003a24                  code_TWOSTORE
                  0x003a30                  code_DUP
                  0x003a38                  code_TWODUP
                  0x003a44                  code_QDUP
                  0x003a50                  code_DROP
                  0x003a58                  code_TWODROP
                  0x003a62                  code_RDROP
                  0x003a6a                  code_SWAP
                  0x003a76                  code_TWOSWAP
                  0x003a8a                  code_ROT
                  0x003a9c                  code_NROT
                  0x003aac                  code_OVER
                  0x003ab6                  code_TWOOVER
                  0x003ac4                  code_NIP
                  0x003acc                  code_TOR
                  0x003ad6                  code_RFROM
                  0x003ae0                  code_RFETCH
                  0x003aea                  code_SPFETCH
                  0x003af6                  code_SPSTORE
                  0x003afe                  code_RPFETCH
                  0x003b08                  code_RPSTORE
                  0x003b12                  code_TUCK
                  0x003b1e                  code_DEPTH
                  0x003b2c                  code_PICK
                  0x003b3a                  code_TOCSTK
                  0x003b48                  code_CSTKFROM
                  0x003b56                  code_MSB
                  0x003b60                  code_MAXINT
                  0x003b6a                  code_MININT
                  0x003b74                  code_PLUS
                  0x003b7c                  code_MINUS
                  0x003b86                  code_ONEPLUS
                  0x003b8e                  code_TWOPLUS
                  0x003b96                  code_ONEMINUS
                  0x003b9e                  code_TWOMINUS
                  0x003ba6                  code_TWOSTAR
                  0x003bae                  code_TWOSLASH
                  0x003bb6                  code_LSHIFT
                  0x003bd2                  code_RSHIFT
                  0x003bee                  code_PLUSSTORE
                  0x003bfc                  code_DPLUS
                  0x003c0e                  code_MPLUS
                  0x003c1e                  code_STAR
                  0x003c28                  code_MSTAR
                  0x003c34                  code_UMSTAR
                  0x003c40                  code_UDSTAR
                  0x003c54                  code_DIVIDE
                  0x003c62                  code_MOD
                  0x003c70                  code_STARSLASH
                  0x003c82                  code_STARSLASHMOD
                  0x003c96                  code_SLASHMOD
                  0x003ca6                  code_UMSLASHMOD
                  0x003cb8                  code_UDSLASHMOD
                  0x003cd4                  code_MAX
                  0x003ce2                  code_MIN
                  0x003cf0                  code_UMAX
                  0x003cfe                  code_UMIN
                  0x003d0c                  code_WITHIN
                  0x003d1a                  code_EVEN
                  0x003d28                  code_ODD
                  0x003d36                  code_ABS
                  0x003d40                  code_DABS
                  0x003d56                  code_STOD
                  0x003d66                  code_QNEGATE
                  0x003d74                  code_AND
                  0x003d7c                  code_OR
                  0x003d84                  code_XOR
                  0x003d8c                  code_NOT
                  0x003d9c                  code_INVERT
                  0x003da4                  code_DINVERT
                  0x003dae                  code_NEGATE
                  0x003db6                  code_DNEGATE
                  0x003dc6                  code_ZEROEQ
                  0x003dd0                  code_ZERODIFF
                  0x003de0                  code_ZEROLT
                  0x003dec                  code_ZEROGT
                  0x003dfc                  code_EQUAL
                  0x003e0c                  code_NOTEQ
                  0x003e1c                  code_LESS
                  0x003e2c                  code_GREATER
                  0x003e3c                  code_ULESS
                  0x003e4c                  code_UGREATER
                  0x003e5c                  code_CELL
                  0x003e66                  code_CELLPLUS
                  0x003e6e                  code_CELLS
                  0x003e78                  code_ALIGNED
                  0x003e82                  code_TOCHAR
                  0x003e90                  code_MOVE
                  0x003e98                  code_CMOVE
                  0x003eb8                  code_CMOVETO
                  0x003edc                  code_SCAN
                  0x003efe                  code_FILL
                  0x003f1c                  code_MINUSTRAILING
                  0x003f32                  code_VERSION
                  0x003f3c                  code_R0
                  0x003f46                  code_S0
                  0x003f50                  code_RAMEND
                  0x003f5a                  code_IMMED
                  0x003f64                  code_HIDDEN
                  0x003f6e                  code_NMARK
                  0x003f78                  code_LENMASK
                  0x003f82                  code_BL
                  0x003f8c                  code_TIBSIZE
                  0x003f96                  code_PADSIZE
                  0x003fa0                  code_ULIMIT
                  0x003faa                  code_DOCOL
                  0x003fb4                  code_TRUE
                  0x003fbe                  code_FALSE
                  0x003fc8                  code_DP0
                  0x003fd2                  code_TSOURCE
                  0x003fe0                  code_SRCSTORE
                  0x003fee                  code_UPPER
                  0x004010                  code_SKIP
                  0x00402c                  code_FIND
                  0x004072                  FETCH_EXEC
                  0x00407c                  code_SCRBUF
                  0x004086                  code_HTAB
                  0x004090                  code_TVOUT_INIT
                  0x0040f6                  code_VIDEO
                  0x004102                  code_CURENBL
                  0x00411e                  code_CLS
                  0x004134                  code_SCRLUP
                  0x00413e                  code_SCRLDN
                  0x004148                  code_GETX
                  0x004156                  code_GETY
                  0x004164                  code_SETX
                  0x004182                  code_SETY
                  0x0041a0                  code_CURADR
                  0x0041b6                  code_SCRCHAR
                  0x0041de                  code_CHRTOSCR
                  0x004206                  code_INVLN
                  0x00422e                  code_LCLEFT
                  0x004246                  code_LCRIGHT
                  0x004260                  code_LCHOME
                  0x004274                  code_LCUP
                  0x00428c                  code_LCDOWN
                  0x0042a6                  code_TGLCHAR
                  0x0042bc                  code_PUTC
                  0x0042fa                  code_CR
                  0x00431c                  code_CLRLN
                  0x00433e                  code_LCEMITQ
                  0x004348                  code_SERIAL_INIT
                  0x004374                  code_SERENBL
                  0x00438a                  code_BAUD
                  0x0043b0                  code_SPUTC
                  0x0043c4                  code_SGETC
                  0x0043fa                  code_SREADYQ
                  0x004408                  code_SGETCQ
                  0x004416                  code_SOUND_INIT
                  0x004434                  code_TONE
                  0x004454                  code_STORE_INIT
                  0x0044d6                  code_XWRITE
                  0x004516                  code_XREAD
                  0x004550                  code_QWIP
                  0x00457e                  code_RAMTOEE
                  0x0045dc                  code_EEREAD
                  0x00461a                  code_EPAGE
                  0x004624                  code_ESECTOR
                  0x00462e                  code_EALL
                  0x004638                  code_EERASE
                  0x00469a                  code_DEVID
                  0x0046a4                  code_FN_READ
                  0x0046ae                  code_FN_WRITE
                  0x0046b8                  code_FN_BLKTOADR
                  0x0046c2                  code_KBD_INIT
                  0x0046f2                  code_KBD_RESET
                  0x00470c                  code_LCEKEYQ
                  0x00471e                  code_LCEKEY
                  0x00473c                  code_LCFILTER
                  0x004766                  code_XON
                  0x004770                  code_XOFF
                  0x00477a                  code_TBLFETCHL
                  0x00478a                  code_TBLFETCHH
                  0x00479a                  code_IFETCH
                  0x0047b6                  code_FADDR
                  0x0047c4                  code_FNEXT
                  0x0047d2                  code_WRITE_LATCH
                  0x0047fa                  code_FLASH_OP
                  0x00481c                  code_UDREL
                  0x004842                  code_IMGHEAD
                  0x00484c                  code_MAGIC
                  0x004856                  code_IMGROW
                  0x004860                  code_SDCINIT
                  0x00492a                  code_QSDC
                  0x004934                  code_SDCREAD
                  0x004980                  code_SDCWRITE
                  0x0049f0                  code_SDFIRST
                  0x0049fa                  code_HEAP_INIT
                  0x004a14                  code_HEAPSIZE
                  0x004a1e                  code_HEAPFREE
                  0x004a28                  code_FREE_BYTES_STORE
                  0x004a32                  code_FREELIST
                  0x004a3c                  code_USEDLIST
                  0x004a46                  code_BLK
                  0x004a50                  code_SCR
                  0x004a5a                  code_BLKDEV
                  0x004a64                  code_BUFARRAY
                  0x004a6e                  code_TICKS_INIT
                  0x004a8a                  code_SET_CLOCK
                  0x004a9a                  code_CLR_LOW_RAM
                  0x004aa6                  code_CLR_RAM
                  0x004ab2                  code_IO_LOCK
                  0x004aba                  code_VARS_INIT
                  0x004ad4                  code_TICKS
                  0x004ade                  code_USEC
                  0x004af8                  code_LFSR
                  0x004b10                  code_RAND
                  0x004b42                  code_SRAND
                  0x004b52                  code_CRCENBL
                  0x004b62                  code_QCRCFIFO
                  0x004b76                  code_CRCLE
                  0x004b86                  code_CRCSTART
                  0x004b90                  code_CRCDW
                  0x004ba6                  code_CRCPL
                  0x004bba                  code_CRCPOLY
                  0x004bc8                  code_CRCFETCH
                  0x004bd2                  code_CRCDFETCH
                  0x004be0                  code_CRC0
                  0x004bee                  code_CRCCSTORE
                  0x004bfe                  code_CRCSTORE
                  0x004c0c                  code_CRCDSTORE
                  0x004c20                  code_CRCDONE
                  0x004c2e                  cursor_blink
                  0x004c3e                  toggle_char
                  0x004c62                  cursor_enable
                  0x004c76                  cursor_disable
                  0x004c84                  scroll_up
                  0x004cb8                  scroll_down
                  0x004ea2                  _code_end
                  0x007800                  vars_count
                  0x0557fa                  __FGS.sec

External Symbols in Program Memory (by name):

                  0x000fbe                  ABORT
                  0x001000                  ABORTQUOTE
                  0x0006dc                  ABS
                  0x000dea                  ACCEPT
                  0x00182a                  ACTIONOF
                  0x000d50                  ADRTOIN
                  0x0014e0                  AGAIN
                  0x00085c                  ALIGN
                  0x000880                  ALIGNED
                  0x001212                  ALLOT
                  0x0007a2                  AND
                  0x003102                  ASSIGN
                  0x0025b2                  ATXY
                  0x001c6e                  BACKDEL
                  0x0012a0                  BACKJUMP
                  0x00095c                  BASE
                  0x001fc6                  BAUD
                  0x0014d0                  BEGIN
                  0x000a50                  BL
                  0x002eda                  BLK
                  0x002eee                  BLKDEV
                  0x002ffa                  BLKDEVFETCH
                  0x00300c                  BLKTOADR
                  0x003168                  BLOCK
                  0x002f18                  BLOCK_INIT
                  0x0003ea                  BRANCH
                  0x0019b6                  BREAK
                  0x002c66                  BSIZEFETCH
                  0x002c7c                  BSIZESTORE
                  0x002efc                  BUFARRAY
                  0x003158                  BUFFER
                  0x002f66                  BUFFEREDQ
                  0x0003e4                  CALL
                  0x001570                  CASE
                  0x001232                  CCOMMA
                  0x00083e                  CELL
                  0x000848                  CELLPLUS
                  0x000852                  CELLS
                  0x001104                  CFATONFA
                  0x001308                  CFA_COMMA
                  0x000456                  CFETCH
                  0x0008de                  CHAR
                  0x0008d0                  CHARPLUS
                  0x0008c4                  CHARS
                  0x001ad0                  CHRTOSCR
                  0x003308                  CLEAR
                  0x002636                  CLEARLN
                  0x001012                  CLIP
                  0x0003e8                  CLIT
                  0x001c84                  CLRLN
                  0x003296                  CLR_LOW_RAM
                  0x003298                  CLR_RAM
                  0x001a46                  CLS
                  0x0008ae                  CMOVE
                  0x0008ba                  CMOVETO
                  0x0009ca                  CNTSOURCE
                  0x001ec6                  COLFILL
                  0x001702                  COLON
                  0x001630                  COLON_NO_NAME
                  0x00121e                  COMMA
                  0x0010a2                  COMMENT
                  0x00090e                  COMPILECHAR
                  0x001276                  COMPILETICK
                  0x00251a                  CONSOLE
                  0x001788                  CONSTANT
                  0x000eaa                  COUNT
                  0x001f44                  CQUESTION
                  0x0013e2                  CQUOTE
                  0x001b84                  CR
                  0x00339c                  CRC0
                  0x0033d0                  CRC16
                  0x0033fe                  CRC7
                  0x0033a6                  CRCCSTORE
                  0x003392                  CRCDFETCH
                  0x0033c6                  CRCDONE
                  0x0033ba                  CRCDSTORE
                  0x003368                  CRCDW
                  0x003338                  CRCENBL
                  0x003388                  CRCFETCH
                  0x003350                  CRCLE
                  0x003372                  CRCPL
                  0x00337e                  CRCPOLY
                  0x00335e                  CRCSTART
                  0x0033b0                  CRCSTORE
                  0x001718                  CREATE
                  0x00057e                  CSTKFROM
                  0x000490                  CSTORE
                  0x002b9c                  CSTRTORAM
                  0x001a92                  CURADR
                  0x001a3e                  CURENBL
                  0x001a9e                  CURPOS
                  0x002dd8                  CUT
                  0x0006e6                  DABS
                  0x002f0c                  DATA
                  0x0030a8                  DATAOUT
                  0x0009e4                  DBGEN
                  0x001f66                  DDOT
                  0x001f84                  DDOTR
                  0x0019a6                  DEBUG
                  0x0005bc                  DECIMAL
                  0x000ac0                  DECIMALQ
                  0x0017dc                  DEFER
                  0x0017cc                  DEFEREXEC
                  0x001806                  DEFERFETCH
                  0x0017f4                  DEFERSTORE
                  0x002688                  DELBACK
                  0x002674                  DELETE
                  0x00269c                  DELLINE
                  0x000560                  DEPTH
                  0x0020ea                  DEVID
                  0x001dec                  DIGIT
                  0x0007d2                  DINVERT
                  0x000656                  DIVIDE
                  0x0007ea                  DNEGATE
                  0x001428                  DO
                  0x000a7e                  DOCOL
                  0x0038aa                  DOCONST
                  0x0003f0                  DODO
                  0x00174a                  DOESTO
                  0x0003fc                  DOI
                  0x000408                  DOJ
                  0x000402                  DOL
                  0x0003f4                  DOLOOP
                  0x0003f6                  DOPLOOP
                  0x0003f2                  DOQDO
                  0x001382                  DOSTR
                  0x001f16                  DOT
                  0x00183a                  DOTPAREN
                  0x0013f4                  DOTQUOTE
                  0x001ee2                  DOTR
                  0x001910                  DOTRTN
                  0x0018de                  DOTS
                  0x0013a6                  DOTSTR
                  0x003894                  DOUSER
                  0x0038a0                  DOVAR
                  0x000950                  DP
                  0x000a9a                  DP0
                  0x00062a                  DPLUS
                  0x0004be                  DROP
                  0x0023d2                  DSR
                  0x001946                  DUMP
                  0x0004a0                  DUP
                  0x00209a                  EALL
                  0x000466                  ECFETCH
                  0x002058                  EEBLKTOADR
                  0x002132                  EEPROM
                  0x0020a6                  EERASE
                  0x00207a                  EEREAD
                  0x0020b2                  EEWRITE
                  0x00045e                  EFETCH
                  0x00255a                  EKEY
                  0x002570                  EKEYQ
                  0x0025e2                  EKEYTOCHAR
                  0x00152a                  ELSE
                  0x002586                  EMIT
                  0x00259c                  EMITQ
                  0x0031c0                  EMPTYBUFFERS
                  0x0015b6                  ENDCASE
                  0x00159c                  ENDOF
                  0x00388a                  ENTER
                  0x002084                  EPAGE
                  0x000810                  EQUAL
                  0x002964                  ERASEROWS
                  0x000ec4                  ERROR
                  0x002434                  ESCSEQQ
                  0x002090                  ESECTOR
                  0x002b6c                  ESTRFROM
                  0x000f72                  EVAL
                  0x00078e                  EVARMINUS
                  0x000778                  EVARPLUS
                  0x0006cc                  EVEN
                  0x000434                  EXECUTE
                  0x0003d0                  EXIT
                  0x001644                  EXITCOMMA
                  0x001e10                  EXTRACT
                  0x002728                  FADDR
                  0x000a92                  FALSE
                  0x0026f2                  FBUFFER
                  0x002798                  FERASE
                  0x00044e                  FETCH
                  0x00043e                  FETCHEXEC
                  0x004072                  FETCH_EXEC
                  0x00302e                  FIELDS
                  0x00092e                  FILL
                  0x000dde                  FIND
                  0x00147e                  FIXLEAVE
                  0x002834                  FLASHTORAM
                  0x002736                  FLASH_OP
                  0x0031f0                  FLUSH
                  0x000734                  FMSLASHMOD
                  0x002732                  FNEXT
                  0x002114                  FN_BLKTOADR
                  0x0020f6                  FN_READ
                  0x002104                  FN_WRITE
                  0x0012ce                  FOREJUMP
                  0x00168a                  FORGET
                  0x002e90                  FREE
                  0x002c4c                  FREELIST
                  0x002c3e                  FREE_BYTES_STORE
                  0x001038                  GETCLIP
                  0x0026c4                  GETCUR
                  0x001a68                  GETX
                  0x001a72                  GETY
                  0x000824                  GREATER
                  0x003274                  HARDWARE_INIT
                  0x001656                  HEADER
                  0x002c3c                  HEAPFREE
                  0x002c2e                  HEAPSIZE
                  0x002c20                  HEAP_INIT
                  0x000894                  HERE
                  0x0005a6                  HEX
                  0x000a32                  HIDDEN
                  0x0011b0                  HIDE
                  0x001e38                  HOLD
                  0x0009ae                  HP
                  0x001a26                  HTAB
                  0x00271e                  IFETCH
                  0x001506                  IIF
                  0x00291e                  IMGADDR
                  0x0028c8                  IMGDP
                  0x00287e                  IMGHEAD
                  0x0028b6                  IMGLATST
                  0x0029c8                  IMGLOAD
                  0x002894                  IMGROW
                  0x0029a0                  IMGSAVE
                  0x0028a0                  IMGSIGN
                  0x0028dc                  IMGSIZE
                  0x002a92                  IMGTOSDC
                  0x000a26                  IMMED
                  0x00118e                  IMMEDIATE
                  0x0030da                  INDATA
                  0x000f0c                  INTERPRET
                  0x0007c6                  INVERT
                  0x001ada                  INVLN
                  0x00329a                  IO_LOCK
                  0x00041c                  IPFETCH
                  0x001814                  IS
                  0x00213c                  KBD_INIT
                  0x00213e                  KBD_RESET
                  0x00252e                  KEY
                  0x002544                  KEYQ
                  0x00097a                  LATEST
                  0x0012e4                  LBRACKET
                  0x001c90                  LCBEL
                  0x0024bc                  LCCONS
                  0x001be0                  LCDEL
                  0x001b66                  LCDOWN
                  0x002158                  LCEKEY
                  0x00214c                  LCEKEYQ
                  0x001ca8                  LCEMIT
                  0x001dd2                  LCEMITQ
                  0x001b0c                  LCEND
                  0x002166                  LCFILTER
                  0x001ab2                  LCGETCUR
                  0x001b00                  LCHOME
                  0x001c22                  LCINSRT
                  0x002198                  LCKEY
                  0x002172                  LCKEYQ
                  0x001ae6                  LCLEFT
                  0x001af4                  LCRIGHT
                  0x001b5a                  LCUP
                  0x00146c                  LEAVE
                  0x000a48                  LENMASK
                  0x00081e                  LESS
                  0x0032ea                  LFSR
                  0x003200                  LIST
                  0x0003e6                  LIT
                  0x001370                  LITERAL
                  0x00317c                  LOAD
                  0x0024fa                  LOCAL
                  0x0014a8                  LOOP
                  0x001092                  LPAREN
                  0x00060e                  LSHIFT
                  0x001e20                  LTSHARP
                  0x002888                  MAGIC
                  0x002e30                  MALLOC
                  0x00128c                  MARKADDR
                  0x0016d0                  MARKER
                  0x0012b4                  MARKSLOT
                  0x00069a                  MAX
                  0x000592                  MAXINT
                  0x0026dc                  MFLASH
                  0x0006a2                  MIN
                  0x00059e                  MININT
                  0x0005d2                  MINUS
                  0x00093c                  MINUSTRAILING
                  0x00065e                  MOD
                  0x0008a4                  MOVE
                  0x000632                  MPLUS
                  0x0032b8                  MS
                  0x000586                  MSB
                  0x000640                  MSTAR
                  0x0011ca                  NAMEMARK
                  0x0007de                  NEGATE
                  0x0026b0                  NEWLINE
                  0x001b94                  NEXTCOLON
                  0x0010ca                  NFATOCFA
                  0x0010b6                  NFATOLFA
                  0x000514                  NIP
                  0x002c90                  NLNKFETCH
                  0x002cb8                  NLNKSTORE
                  0x000a3c                  NMARK
                  0x0017a8                  NOINIT
                  0x0003d8                  NOP
                  0x0007ba                  NOT
                  0x000818                  NOTEQ
                  0x002f94                  NOTUSED
                  0x003090                  NOUPDATE
                  0x0004f8                  NROT
                  0x002a60                  NSECTOR
                  0x0006d4                  ODD
                  0x001580                  OF
                  0x000f90                  OK
                  0x002fc0                  OLDEST
                  0x0005ea                  ONEMINUS
                  0x0005da                  ONEPLUS
                  0x0007aa                  OR
                  0x000502                  OVER
                  0x002f3e                  OWNQ
                  0x000984                  PAD
                  0x000a68                  PADSIZE
                  0x0025c8                  PAGE
                  0x000d8a                  PARSE
                  0x00099a                  PASTE
                  0x00056a                  PICK
                  0x002ca4                  PLNKFETCH
                  0x002ccc                  PLNKSTORE
                  0x0005cc                  PLUS
                  0x0014bc                  PLUSLOOP
                  0x000622                  PLUSSTORE
                  0x00134a                  POSTONE
                  0x002d3a                  PREPEND
                  0x001b7c                  PUTC
                  0x000fe0                  QABORT
                  0x003254                  QAUTORUN
                  0x000c2c                  QBASE
                  0x003268                  QCOLD
                  0x0015d8                  QCOMPILE
                  0x003346                  QCRCFIFO
                  0x000b06                  QDIGIT
                  0x001442                  QDO
                  0x000b58                  QDOUBLE
                  0x001894                  QDSP
                  0x0004b4                  QDUP
                  0x001178                  QEMPTY
                  0x002d5c                  QFIT
                  0x00274e                  QFLIMITS
                  0x002932                  QIMG
                  0x002e6a                  QINLIST
                  0x001612                  QNAME
                  0x0006fa                  QNEGATE
                  0x000c8c                  QNUMBER
                  0x002a1e                  QSDC
                  0x002a2a                  QSDCOK
                  0x000c00                  QSIGN
                  0x002950                  QSIZE
                  0x001f30                  QUESTION
                  0x00107e                  QUIT
                  0x002038                  QWIP
                  0x001320                  QWORD
                  0x000a08                  R0
                  0x000a1c                  RAMEND
                  0x00206e                  RAMTOEE
                  0x0027f4                  RAMTOFLASH
                  0x0032f4                  RAND
                  0x0012f4                  RBRACKET
                  0x0004d2                  RDROP
                  0x000428                  REBOOT
                  0x001416                  RECURSE
                  0x00250a                  REMOTE
                  0x00155a                  REPEAT
                  0x00104e                  REPL
                  0x0019f2                  RESUME
                  0x0011ee                  REVEAL
                  0x00052c                  RFETCH
                  0x000524                  RFROM
                  0x0004ee                  ROT
                  0x002784                  ROWTOFADR
                  0x0009d8                  RPBREAK
                  0x000544                  RPFETCH
                  0x00054c                  RPSTORE
                  0x00061a                  RSHIFT
                  0x0013a0                  RT_CQUOTE
                  0x00172a                  RT_DOES
                  0x0016ea                  RT_MARKER
                  0x000a10                  S0
                  0x003198                  SAVEBUFFERS
                  0x000924                  SCAN
                  0x002ee2                  SCR
                  0x001a1c                  SCRBUF
                  0x001ac4                  SCRCHAR
                  0x001a5e                  SCRLDN
                  0x001a52                  SCRLUP
                  0x002b3e                  SDBLKTOADR
                  0x002b5a                  SDCARD
                  0x002a14                  SDCINIT
                  0x002a46                  SDCREAD
                  0x002ae0                  SDCTOIMG
                  0x002a54                  SDCWRITE
                  0x002b30                  SDFIRST
                  0x00179c                  SEMICOLON
                  0x0024dc                  SERCONS
                  0x001fbc                  SERENBL
                  0x001fb0                  SERIAL_INIT
                  0x0028f2                  SETHEADER
                  0x001a7c                  SETX
                  0x001a86                  SETY
                  0x003294                  SET_CLOCK
                  0x001fda                  SGETC
                  0x001ff2                  SGETCQ
                  0x001e4e                  SHARP
                  0x001e8c                  SHARPGT
                  0x001e60                  SHARPS
                  0x001e76                  SIGN
                  0x000d44                  SKIP
                  0x00067a                  SLASHMOD
                  0x000d72                  SLASHSTRING
                  0x0013b0                  SLIT
                  0x002d72                  SMALLBLK
                  0x002da6                  SMALLEST
                  0x000706                  SMSLASHREM
                  0x001ff4                  SOUND_INIT
                  0x0025f8                  SPACE
                  0x00260c                  SPACES
                  0x000534                  SPFETCH
                  0x00053c                  SPSTORE
                  0x001fd0                  SPUTC
                  0x0013d0                  SQUOTE
                  0x0032fe                  SRAND
                  0x000ab2                  SRCSTORE
                  0x001fe6                  SREADYQ
                  0x000638                  STAR
                  0x000666                  STARSLASH
                  0x000670                  STARSLASHMOD
                  0x000946                  STATE
                  0x0006ee                  STOD
                  0x000488                  STORE
                  0x002000                  STORE_INIT
                  0x001ea8                  STR
                  0x0013bc                  STRCOMPILE
                  0x002bce                  STREQUAL
                  0x002b82                  STRFROM
                  0x001398                  STRQUOTE
                  0x002efe                  STRUCADR
                  0x0004dc                  SWAP
                  0x0009f2                  SYSCONS
                  0x00096c                  SYSLATEST
                  0x000478                  TBLFETCH
                  0x002716                  TBLFETCHH
                  0x00270c                  TBLFETCHL
                  0x000482                  TBLSTORE
                  0x0003ec                  TBRANCH
                  0x001b72                  TGLCHAR
                  0x00151a                  THEN
                  0x00098e                  TIB
                  0x000a5c                  TIBSIZE
                  0x001244                  TICK
                  0x0032a6                  TICKS
                  0x0009bc                  TICKSOURCE
                  0x003292                  TICKS_INIT
                  0x000ae8                  TOBASE10
                  0x0010e4                  TOBODY
                  0x00088a                  TOCHAR
                  0x000ef2                  TOCOUNTED
                  0x000574                  TOCSTK
                  0x0027ce                  TOFLASH
                  0x0009a4                  TOIN
                  0x001ffe                  TONE
                  0x000b98                  TONUMBER
                  0x00051c                  TOR
                  0x000a88                  TRUE
                  0x000aa6                  TSOURCE
                  0x000556                  TUCK
                  0x001a28                  TVOUT_INIT
                  0x001dde                  TVPAGE
                  0x0004c8                  TWODROP
                  0x0004aa                  TWODUP
                  0x00046e                  TWOFETCH
                  0x0005f2                  TWOMINUS
                  0x00050c                  TWOOVER
                  0x0005e2                  TWOPLUS
                  0x001878                  TWORFETCH
                  0x001862                  TWORFROM
                  0x000602                  TWOSLASH
                  0x0005fa                  TWOSTAR
                  0x000498                  TWOSTORE
                  0x0004e6                  TWOSWAP
                  0x00184c                  TWOTOR
                  0x002648                  TYPE
                  0x001f52                  UDDOT
                  0x001f9c                  UDDOTR
                  0x001f08                  UDOT
                  0x001ef4                  UDOTR
                  0x002740                  UDREL
                  0x000692                  UDSLASHMOD
                  0x000650                  UDSTAR
                  0x000834                  UGREATER
                  0x00082c                  ULESS
                  0x000a74                  ULIMIT
                  0x0006ac                  UMAX
                  0x0006b6                  UMIN
                  0x000686                  UMSLASHMOD
                  0x000648                  UMSTAR
                  0x002ce2                  UNLINK
                  0x000414                  UNLOOP
                  0x0014f4                  UNTIL
                  0x003324                  UNUSED
                  0x00305c                  UPDATE
                  0x002fee                  UPDATEDFETCH
                  0x000d3a                  UPPER
                  0x0032b0                  USEC
                  0x002c5a                  USEDLIST
                  0x001770                  VARIABLE
                  0x00329c                  VARS_INIT
                  0x000a00                  VERSION
                  0x000448                  VEXEC
                  0x001a32                  VIDEO
                  0x002364                  VTATXY
                  0x0024a2                  VTCRLF
                  0x00238a                  VTDELBACK
                  0x0023aa                  VTDELLN
                  0x0022d0                  VTEMIT
                  0x00225c                  VTFILTER
                  0x002462                  VTGETCUR
                  0x0023f8                  VTGETP
                  0x0022ba                  VTKEY
                  0x002294                  VTKEYQ
                  0x002372                  VTPAGE
                  0x001542                  WHILE
                  0x0006c2                  WITHIN
                  0x000db8                  WORD
                  0x000cec                  WORDS
                  0x002734                  WRITE_LATCH
                  0x002042                  WWIP
                  0x00200e                  XBLKTOADR
                  0x00220e                  XOFF
                  0x002204                  XON
                  0x0007b2                  XOR
                  0x00211e                  XRAM
                  0x00202e                  XREAD
                  0x002024                  XWRITE
                  0x0003ee                  ZBRANCH
                  0x0007fa                  ZERODIFF
                  0x0007f2                  ZEROEQ
                  0x00080a                  ZEROGT
                  0x000802                  ZEROLT
                  0x000394                  __CNInterrupt
                  0x0003aa                  __DefaultInterrupt
                  0x0557fa                  __FGS.sec
                  0x0003c6                  __INT1Interrupt
                  0x00039e                  __MathError
                  0x0002ba                  __OC2Interrupt
                  0x0003a4                  __StackError
                  0x0003ac                  __T1Interrupt
                  0x00022e                  __T2Interrupt
                  0x000320                  __U1RXInterrupt
                  0x00036e                  __U2RXInterrupt
                  0x000200                  __reset
                  0x004ea2                  _code_end
                  0x003424                  _font
                  0x003831                  _math_error
                  0x003860                  _stack_reset
                  0x003873                  _unknown_reset
                  0x003847                  _user_aborted
                  0x003824                  _version
                  0x003d36                  code_ABS
                  0x003e78                  code_ALIGNED
                  0x003d74                  code_AND
                  0x00438a                  code_BAUD
                  0x003f82                  code_BL
                  0x004a46                  code_BLK
                  0x004a5a                  code_BLKDEV
                  0x0038e2                  code_BRANCH
                  0x004a64                  code_BUFARRAY
                  0x0038bc                  code_CALL
                  0x003e5c                  code_CELL
                  0x003e66                  code_CELLPLUS
                  0x003e6e                  code_CELLS
                  0x0039b4                  code_CFETCH
                  0x0041de                  code_CHRTOSCR
                  0x0038d6                  code_CLIT
                  0x00431c                  code_CLRLN
                  0x004a9a                  code_CLR_LOW_RAM
                  0x004aa6                  code_CLR_RAM
                  0x00411e                  code_CLS
                  0x003e98                  code_CMOVE
                  0x003eb8                  code_CMOVETO
                  0x0042fa                  code_CR
                  0x004be0                  code_CRC0
                  0x004bee                  code_CRCCSTORE
                  0x004bd2                  code_CRCDFETCH
                  0x004c20                  code_CRCDONE
                  0x004c0c                  code_CRCDSTORE
                  0x004b90                  code_CRCDW
                  0x004b52                  code_CRCENBL
                  0x004bc8                  code_CRCFETCH
                  0x004b76                  code_CRCLE
                  0x004ba6                  code_CRCPL
                  0x004bba                  code_CRCPOLY
                  0x004b86                  code_CRCSTART
                  0x004bfe                  code_CRCSTORE
                  0x003b48                  code_CSTKFROM
                  0x003a18                  code_CSTORE
                  0x0041a0                  code_CURADR
                  0x004102                  code_CURENBL
                  0x003d40                  code_DABS
                  0x003b1e                  code_DEPTH
                  0x00469a                  code_DEVID
                  0x003da4                  code_DINVERT
                  0x003c54                  code_DIVIDE
                  0x003db6                  code_DNEGATE
                  0x003faa                  code_DOCOL
                  0x003906                  code_DODO
                  0x003962                  code_DOI
                  0x003976                  code_DOJ
                  0x00396c                  code_DOL
                  0x00392a                  code_DOLOOP
                  0x003944                  code_DOPLOOP
                  0x003918                  code_DOQDO
                  0x003fc8                  code_DP0
                  0x003bfc                  code_DPLUS
                  0x003a50                  code_DROP
                  0x003a30                  code_DUP
                  0x00462e                  code_EALL
                  0x0039cc                  code_ECFETCH
                  0x004638                  code_EERASE
                  0x0045dc                  code_EEREAD
                  0x0039be                  code_EFETCH
                  0x00461a                  code_EPAGE
                  0x003dfc                  code_EQUAL
                  0x004624                  code_ESECTOR
                  0x003d1a                  code_EVEN
                  0x003996                  code_EXECUTE
                  0x0038b4                  code_EXIT
                  0x0047b6                  code_FADDR
                  0x003fbe                  code_FALSE
                  0x0039ac                  code_FETCH
                  0x00399e                  code_FETCHEXEC
                  0x003efe                  code_FILL
                  0x00402c                  code_FIND
                  0x0047fa                  code_FLASH_OP
                  0x0047c4                  code_FNEXT
                  0x0046b8                  code_FN_BLKTOADR
                  0x0046a4                  code_FN_READ
                  0x0046ae                  code_FN_WRITE
                  0x004a32                  code_FREELIST
                  0x004a28                  code_FREE_BYTES_STORE
                  0x004148                  code_GETX
                  0x004156                  code_GETY
                  0x003e2c                  code_GREATER
                  0x004a1e                  code_HEAPFREE
                  0x004a14                  code_HEAPSIZE
                  0x0049fa                  code_HEAP_INIT
                  0x003f64                  code_HIDDEN
                  0x004086                  code_HTAB
                  0x00479a                  code_IFETCH
                  0x004842                  code_IMGHEAD
                  0x004856                  code_IMGROW
                  0x003f5a                  code_IMMED
                  0x003d9c                  code_INVERT
                  0x004206                  code_INVLN
                  0x004ab2                  code_IO_LOCK
                  0x00398a                  code_IPFETCH
                  0x0046c2                  code_KBD_INIT
                  0x0046f2                  code_KBD_RESET
                  0x00428c                  code_LCDOWN
                  0x00471e                  code_LCEKEY
                  0x00470c                  code_LCEKEYQ
                  0x00433e                  code_LCEMITQ
                  0x00473c                  code_LCFILTER
                  0x004260                  code_LCHOME
                  0x00422e                  code_LCLEFT
                  0x004246                  code_LCRIGHT
                  0x004274                  code_LCUP
                  0x003f78                  code_LENMASK
                  0x003e1c                  code_LESS
                  0x004af8                  code_LFSR
                  0x0038cc                  code_LIT
                  0x003bb6                  code_LSHIFT
                  0x00484c                  code_MAGIC
                  0x003cd4                  code_MAX
                  0x003b60                  code_MAXINT
                  0x003ce2                  code_MIN
                  0x003b6a                  code_MININT
                  0x003b7c                  code_MINUS
                  0x003f1c                  code_MINUSTRAILING
                  0x003c62                  code_MOD
                  0x003e90                  code_MOVE
                  0x003c0e                  code_MPLUS
                  0x003b56                  code_MSB
                  0x003c28                  code_MSTAR
                  0x003dae                  code_NEGATE
                  0x003ac4                  code_NIP
                  0x003f6e                  code_NMARK
                  0x003d8c                  code_NOT
                  0x003e0c                  code_NOTEQ
                  0x003a9c                  code_NROT
                  0x003d28                  code_ODD
                  0x003b96                  code_ONEMINUS
                  0x003b86                  code_ONEPLUS
                  0x003d7c                  code_OR
                  0x003aac                  code_OVER
                  0x003f96                  code_PADSIZE
                  0x003b2c                  code_PICK
                  0x003b74                  code_PLUS
                  0x003bee                  code_PLUSSTORE
                  0x0042bc                  code_PUTC
                  0x004b62                  code_QCRCFIFO
                  0x003a44                  code_QDUP
                  0x003d66                  code_QNEGATE
                  0x00492a                  code_QSDC
                  0x004550                  code_QWIP
                  0x003f3c                  code_R0
                  0x003f50                  code_RAMEND
                  0x00457e                  code_RAMTOEE
                  0x004b10                  code_RAND
                  0x003a62                  code_RDROP
                  0x003994                  code_REBOOT
                  0x003ae0                  code_RFETCH
                  0x003ad6                  code_RFROM
                  0x003a8a                  code_ROT
                  0x003afe                  code_RPFETCH
                  0x003b08                  code_RPSTORE
                  0x003bd2                  code_RSHIFT
                  0x003f46                  code_S0
                  0x003edc                  code_SCAN
                  0x004a50                  code_SCR
                  0x00407c                  code_SCRBUF
                  0x0041b6                  code_SCRCHAR
                  0x00413e                  code_SCRLDN
                  0x004134                  code_SCRLUP
                  0x004860                  code_SDCINIT
                  0x004934                  code_SDCREAD
                  0x004980                  code_SDCWRITE
                  0x0049f0                  code_SDFIRST
                  0x004374                  code_SERENBL
                  0x004348                  code_SERIAL_INIT
                  0x004164                  code_SETX
                  0x004182                  code_SETY
                  0x004a8a                  code_SET_CLOCK
                  0x0043c4                  code_SGETC
                  0x004408                  code_SGETCQ
                  0x004010                  code_SKIP
                  0x003c96                  code_SLASHMOD
                  0x004416                  code_SOUND_INIT
                  0x003aea                  code_SPFETCH
                  0x003af6                  code_SPSTORE
                  0x0043b0                  code_SPUTC
                  0x004b42                  code_SRAND
                  0x003fe0                  code_SRCSTORE
                  0x0043fa                  code_SREADYQ
                  0x003c1e                  code_STAR
                  0x003c70                  code_STARSLASH
                  0x003c82                  code_STARSLASHMOD
                  0x003d56                  code_STOD
                  0x003a0e                  code_STORE
                  0x004454                  code_STORE_INIT
                  0x003a6a                  code_SWAP
                  0x0039ea                  code_TBLFETCH
                  0x00478a                  code_TBLFETCHH
                  0x00477a                  code_TBLFETCHL
                  0x0039fa                  code_TBLSTORE
                  0x0038ea                  code_TBRANCH
                  0x0042a6                  code_TGLCHAR
                  0x003f8c                  code_TIBSIZE
                  0x004ad4                  code_TICKS
                  0x004a6e                  code_TICKS_INIT
                  0x003e82                  code_TOCHAR
                  0x003b3a                  code_TOCSTK
                  0x004434                  code_TONE
                  0x003acc                  code_TOR
                  0x003fb4                  code_TRUE
                  0x003fd2                  code_TSOURCE
                  0x003b12                  code_TUCK
                  0x004090                  code_TVOUT_INIT
                  0x003a58                  code_TWODROP
                  0x003a38                  code_TWODUP
                  0x0039dc                  code_TWOFETCH
                  0x003b9e                  code_TWOMINUS
                  0x003ab6                  code_TWOOVER
                  0x003b8e                  code_TWOPLUS
                  0x003bae                  code_TWOSLASH
                  0x003ba6                  code_TWOSTAR
                  0x003a24                  code_TWOSTORE
                  0x003a76                  code_TWOSWAP
                  0x00481c                  code_UDREL
                  0x003cb8                  code_UDSLASHMOD
                  0x003c40                  code_UDSTAR
                  0x003e4c                  code_UGREATER
                  0x003e3c                  code_ULESS
                  0x003fa0                  code_ULIMIT
                  0x003cf0                  code_UMAX
                  0x003cfe                  code_UMIN
                  0x003ca6                  code_UMSLASHMOD
                  0x003c34                  code_UMSTAR
                  0x003980                  code_UNLOOP
                  0x003fee                  code_UPPER
                  0x004ade                  code_USEC
                  0x004a3c                  code_USEDLIST
                  0x004aba                  code_VARS_INIT
                  0x003f32                  code_VERSION
                  0x0039a2                  code_VEXEC
                  0x0040f6                  code_VIDEO
                  0x003d0c                  code_WITHIN
                  0x0047d2                  code_WRITE_LATCH
                  0x004770                  code_XOFF
                  0x004766                  code_XON
                  0x003d84                  code_XOR
                  0x004516                  code_XREAD
                  0x0044d6                  code_XWRITE
                  0x0038f8                  code_ZBRANCH
                  0x003dd0                  code_ZERODIFF
                  0x003dc6                  code_ZEROEQ
                  0x003dec                  code_ZEROGT
                  0x003de0                  code_ZEROLT
                  0x004c2e                  cursor_blink
                  0x004c76                  cursor_disable
                  0x004c62                  cursor_enable
                  0x000fb6                  lfa_ABORT
                  0x000ff6                  lfa_ABORTQUOTE
                  0x0006d6                  lfa_ABS
                  0x000de0                  lfa_ACCEPT
                  0x00181e                  lfa_ACTIONOF
                  0x000d46                  lfa_ADRTOIN
                  0x0014d8                  lfa_AGAIN
                  0x000854                  lfa_ALIGN
                  0x000876                  lfa_ALIGNED
                  0x00120a                  lfa_ALLOT
                  0x00079c                  lfa_AND
                  0x0030f8                  lfa_ASSIGN
                  0x0025aa                  lfa_ATXY
                  0x001c64                  lfa_BACKDEL
                  0x001294                  lfa_BACKJUMP
                  0x000954                  lfa_BASE
                  0x001fbe                  lfa_BAUD
                  0x0014c8                  lfa_BEGIN
                  0x000a4a                  lfa_BL
                  0x002ed4                  lfa_BLK
                  0x002ee4                  lfa_BLKDEV
                  0x003002                  lfa_BLKTOADR
                  0x003160                  lfa_BLOCK
                  0x0019ae                  lfa_BREAK
                  0x002c5c                  lfa_BSIZEFETCH
                  0x002c72                  lfa_BSIZESTORE
                  0x002ef0                  lfa_BUFARRAY
                  0x00314e                  lfa_BUFFER
                  0x0003dc                  lfa_CALL
                  0x001568                  lfa_CASE
                  0x00122c                  lfa_CCOMMA
                  0x000836                  lfa_CELL
                  0x000840                  lfa_CELLPLUS
                  0x00084a                  lfa_CELLS
                  0x0010fa                  lfa_CFATONFA
                  0x001300                  lfa_CFA_COMMA
                  0x000450                  lfa_CFETCH
                  0x0008d6                  lfa_CHAR
                  0x0008c8                  lfa_CHARPLUS
                  0x0008bc                  lfa_CHARS
                  0x001ac6                  lfa_CHRTOSCR
                  0x003300                  lfa_CLEAR
                  0x00262c                  lfa_CLEARLN
                  0x00100a                  lfa_CLIP
                  0x001c7c                  lfa_CLRLN
                  0x001a40                  lfa_CLS
                  0x0008a6                  lfa_CMOVE
                  0x0008b0                  lfa_CMOVETO
                  0x0009c0                  lfa_CNTSOURCE
                  0x001ebc                  lfa_COLFILL
                  0x0016fe                  lfa_COLON
                  0x001626                  lfa_COLON_NO_NAME
                  0x00121a                  lfa_COMMA
                  0x00109e                  lfa_COMMENT
                  0x000904                  lfa_COMPILECHAR
                  0x001270                  lfa_COMPILETICK
                  0x002510                  lfa_CONSOLE
                  0x00177c                  lfa_CONSTANT
                  0x000ea2                  lfa_COUNT
                  0x001f3e                  lfa_CQUESTION
                  0x0013dc                  lfa_CQUOTE
                  0x001b7e                  lfa_CR
                  0x003394                  lfa_CRC0
                  0x0033c8                  lfa_CRC16
                  0x0033f6                  lfa_CRC7
                  0x00339e                  lfa_CRCCSTORE
                  0x00338a                  lfa_CRCDFETCH
                  0x0033bc                  lfa_CRCDONE
                  0x0033b2                  lfa_CRCDSTORE
                  0x003360                  lfa_CRCDW
                  0x00332e                  lfa_CRCENBL
                  0x003380                  lfa_CRCFETCH
                  0x003348                  lfa_CRCLE
                  0x00336a                  lfa_CRCPL
                  0x003374                  lfa_CRCPOLY
                  0x003352                  lfa_CRCSTART
                  0x0033a8                  lfa_CRCSTORE
                  0x00170e                  lfa_CREATE
                  0x000576                  lfa_CSTKFROM
                  0x00048a                  lfa_CSTORE
                  0x002b90                  lfa_CSTRTORAM
                  0x001a88                  lfa_CURADR
                  0x001a34                  lfa_CURENBL
                  0x001a94                  lfa_CURPOS
                  0x002dd2                  lfa_CUT
                  0x0006de                  lfa_DABS
                  0x0030a0                  lfa_DATAOUT
                  0x0009dc                  lfa_DBGEN
                  0x001f60                  lfa_DDOT
                  0x001f7e                  lfa_DDOTR
                  0x00199e                  lfa_DEBUG
                  0x0005b2                  lfa_DECIMAL
                  0x000ab4                  lfa_DECIMALQ
                  0x0017d4                  lfa_DEFER
                  0x0017fc                  lfa_DEFERFETCH
                  0x0017ea                  lfa_DEFERSTORE
                  0x00267e                  lfa_DELBACK
                  0x00266a                  lfa_DELETE
                  0x002692                  lfa_DELLINE
                  0x000558                  lfa_DEPTH
                  0x0020e2                  lfa_DEVID
                  0x001de4                  lfa_DIGIT
                  0x0007c8                  lfa_DINVERT
                  0x000652                  lfa_DIVIDE
                  0x0007e0                  lfa_DNEGATE
                  0x001422                  lfa_DO
                  0x000a76                  lfa_DOCOL
                  0x001742                  lfa_DOESTO
                  0x0003f8                  lfa_DOI
                  0x000404                  lfa_DOJ
                  0x0003fe                  lfa_DOL
                  0x001f12                  lfa_DOT
                  0x001834                  lfa_DOTPAREN
                  0x0013ee                  lfa_DOTQUOTE
                  0x001edc                  lfa_DOTR
                  0x001908                  lfa_DOTRTN
                  0x0018d8                  lfa_DOTS
                  0x00094a                  lfa_DP
                  0x000a94                  lfa_DP0
                  0x000624                  lfa_DPLUS
                  0x0004b6                  lfa_DROP
                  0x0023cc                  lfa_DSR
                  0x00193e                  lfa_DUMP
                  0x00049a                  lfa_DUP
                  0x002092                  lfa_EALL
                  0x000460                  lfa_ECFETCH
                  0x00204c                  lfa_EEBLKTOADR
                  0x002128                  lfa_EEPROM
                  0x00209c                  lfa_EERASE
                  0x002070                  lfa_EEREAD
                  0x0020a8                  lfa_EEWRITE
                  0x000458                  lfa_EFETCH
                  0x002552                  lfa_EKEY
                  0x002568                  lfa_EKEYQ
                  0x0025d6                  lfa_EKEYTOCHAR
                  0x001522                  lfa_ELSE
                  0x00257e                  lfa_EMIT
                  0x002594                  lfa_EMITQ
                  0x0031b0                  lfa_EMPTYBUFFERS
                  0x0015ac                  lfa_ENDCASE
                  0x001594                  lfa_ENDOF
                  0x00207c                  lfa_EPAGE
                  0x00080c                  lfa_EQUAL
                  0x002958                  lfa_ERASEROWS
                  0x000ebc                  lfa_ERROR
                  0x00242a                  lfa_ESCSEQQ
                  0x002086                  lfa_ESECTOR
                  0x002b64                  lfa_ESTRFROM
                  0x000f66                  lfa_EVAL
                  0x000786                  lfa_EVARMINUS
                  0x000770                  lfa_EVARPLUS
                  0x0006c4                  lfa_EVEN
                  0x00042a                  lfa_EXECUTE
                  0x00163c                  lfa_EXITCOMMA
                  0x001e06                  lfa_EXTRACT
                  0x002720                  lfa_FADDR
                  0x000a8a                  lfa_FALSE
                  0x0026e8                  lfa_FBUFFER
                  0x00278e                  lfa_FERASE
                  0x00044a                  lfa_FETCH
                  0x000436                  lfa_FETCHEXEC
                  0x003024                  lfa_FIELDS
                  0x000926                  lfa_FILL
                  0x000dd6                  lfa_FIND
                  0x002828                  lfa_FLASHTORAM
                  0x0031e8                  lfa_FLUSH
                  0x00072a                  lfa_FMSLASHMOD
                  0x00272a                  lfa_FNEXT
                  0x002106                  lfa_FN_BLKTOADR
                  0x0020ec                  lfa_FN_READ
                  0x0020f8                  lfa_FN_WRITE
                  0x0012c2                  lfa_FOREJUMP
                  0x001680                  lfa_FORGET
                  0x002e88                  lfa_FREE
                  0x002c40                  lfa_FREELIST
                  0x00102e                  lfa_GETCLIP
                  0x0026ba                  lfa_GETCUR
                  0x001a60                  lfa_GETX
                  0x001a6a                  lfa_GETY
                  0x000820                  lfa_GREATER
                  0x00164c                  lfa_HEADER
                  0x002c30                  lfa_HEAPFREE
                  0x002c22                  lfa_HEAPSIZE
                  0x002c14                  lfa_HEAP_INIT
                  0x00088c                  lfa_HERE
                  0x0005a0                  lfa_HEX
                  0x000a28                  lfa_HIDDEN
                  0x0011a8                  lfa_HIDE
                  0x001e30                  lfa_HOLD
                  0x0009a8                  lfa_HP
                  0x001a1e                  lfa_HTAB
                  0x002718                  lfa_IFETCH
                  0x001500                  lfa_IIF
                  0x002914                  lfa_IMGADDR
                  0x0028c0                  lfa_IMGDP
                  0x002874                  lfa_IMGHEAD
                  0x0028aa                  lfa_IMGLATST
                  0x0029be                  lfa_IMGLOAD
                  0x00288a                  lfa_IMGROW
                  0x002996                  lfa_IMGSAVE
                  0x002896                  lfa_IMGSIGN
                  0x0028d2                  lfa_IMGSIZE
                  0x002a88                  lfa_IMGTOSDC
                  0x000a1e                  lfa_IMMED
                  0x001182                  lfa_IMMEDIATE
                  0x0030d2                  lfa_INDATA
                  0x000f00                  lfa_INTERPRET
                  0x0007bc                  lfa_INVERT
                  0x001ad2                  lfa_INVLN
                  0x000416                  lfa_IPFETCH
                  0x00180e                  lfa_IS
                  0x002528                  lfa_KEY
                  0x00253c                  lfa_KEYQ
                  0x000970                  lfa_LATEST
                  0x0012e0                  lfa_LBRACKET
                  0x001c86                  lfa_LCBEL
                  0x0024b2                  lfa_LCCONS
                  0x001bd6                  lfa_LCDEL
                  0x001b5c                  lfa_LCDOWN
                  0x00214e                  lfa_LCEKEY
                  0x002140                  lfa_LCEKEYQ
                  0x001c9e                  lfa_LCEMIT
                  0x001dc6                  lfa_LCEMITQ
                  0x001b02                  lfa_LCEND
                  0x00215a                  lfa_LCFILTER
                  0x001aa6                  lfa_LCGETCUR
                  0x001af6                  lfa_LCHOME
                  0x001c16                  lfa_LCINSRT
                  0x00218e                  lfa_LCKEY
                  0x002168                  lfa_LCKEYQ
                  0x001adc                  lfa_LCLEFT
                  0x001ae8                  lfa_LCRIGHT
                  0x001b52                  lfa_LCUP
                  0x001464                  lfa_LEAVE
                  0x000a3e                  lfa_LENMASK
                  0x00081a                  lfa_LESS
                  0x0032e2                  lfa_LFSR
                  0x0031f8                  lfa_LIST
                  0x001366                  lfa_LITERAL
                  0x003174                  lfa_LOAD
                  0x0024f2                  lfa_LOCAL
                  0x0014a0                  lfa_LOOP
                  0x00108e                  lfa_LPAREN
                  0x000604                  lfa_LSHIFT
                  0x001e1a                  lfa_LTSHARP
                  0x002880                  lfa_MAGIC
                  0x002e26                  lfa_MALLOC
                  0x001284                  lfa_MARKADDR
                  0x0016c6                  lfa_MARKER
                  0x0012ac                  lfa_MARKSLOT
                  0x000694                  lfa_MAX
                  0x000588                  lfa_MAXINT
                  0x0026d2                  lfa_MFLASH
                  0x00069c                  lfa_MIN
                  0x000594                  lfa_MININT
                  0x0005ce                  lfa_MINUS
                  0x000930                  lfa_MINUSTRAILING
                  0x000658                  lfa_MOD
                  0x00089c                  lfa_MOVE
                  0x00062c                  lfa_MPLUS
                  0x0032b2                  lfa_MS
                  0x000580                  lfa_MSB
                  0x00063a                  lfa_MSTAR
                  0x0007d4                  lfa_NEGATE
                  0x0026a6                  lfa_NEWLINE
                  0x001b86                  lfa_NEXTCOLON
                  0x0010c0                  lfa_NFATOCFA
                  0x0010ac                  lfa_NFATOLFA
                  0x00050e                  lfa_NIP
                  0x002c88                  lfa_NLNKFETCH
                  0x002cb0                  lfa_NLNKSTORE
                  0x000a34                  lfa_NMARK
                  0x0003d2                  lfa_NOP
                  0x0007b4                  lfa_NOT
                  0x000812                  lfa_NOTEQ
                  0x003084                  lfa_NOUPDATE
                  0x0004f0                  lfa_NROT
                  0x002a56                  lfa_NSECTOR
                  0x0006ce                  lfa_ODD
                  0x00157a                  lfa_OF
                  0x0005e4                  lfa_ONEMINUS
                  0x0005d4                  lfa_ONEPLUS
                  0x0007a4                  lfa_OR
                  0x0004fa                  lfa_OVER
                  0x00097e                  lfa_PAD
                  0x000a5e                  lfa_PADSIZE
                  0x0025c0                  lfa_PAGE
                  0x000d82                  lfa_PARSE
                  0x000992                  lfa_PASTE
                  0x000562                  lfa_PICK
                  0x002c9c                  lfa_PLNKFETCH
                  0x002cc4                  lfa_PLNKSTORE
                  0x0005c8                  lfa_PLUS
                  0x0014b4                  lfa_PLUSLOOP
                  0x00061c                  lfa_PLUSSTORE
                  0x00133e                  lfa_POSTONE
                  0x002d30                  lfa_PREPEND
                  0x001b74                  lfa_PUTC
                  0x000c24                  lfa_QBASE
                  0x0015cc                  lfa_QCOMPILE
                  0x00333a                  lfa_QCRCFIFO
                  0x000afc                  lfa_QDIGIT
                  0x00143c                  lfa_QDO
                  0x000b4e                  lfa_QDOUBLE
                  0x00188c                  lfa_QDSP
                  0x0004ac                  lfa_QDUP
                  0x00116e                  lfa_QEMPTY
                  0x002d54                  lfa_QFIT
                  0x002742                  lfa_QFLIMITS
                  0x00292a                  lfa_QIMG
                  0x002e60                  lfa_QINLIST
                  0x00160a                  lfa_QNAME
                  0x0006f0                  lfa_QNEGATE
                  0x000c82                  lfa_QNUMBER
                  0x002a16                  lfa_QSDC
                  0x002a20                  lfa_QSDCOK
                  0x000bf8                  lfa_QSIGN
                  0x002948                  lfa_QSIZE
                  0x001f2c                  lfa_QUESTION
                  0x001076                  lfa_QUIT
                  0x002030                  lfa_QWIP
                  0x001318                  lfa_QWORD
                  0x000a02                  lfa_R0
                  0x000a12                  lfa_RAMEND
                  0x002064                  lfa_RAMTOEE
                  0x0027e8                  lfa_RAMTOFLASH
                  0x0032ec                  lfa_RAND
                  0x0012f0                  lfa_RBRACKET
                  0x0004ca                  lfa_RDROP
                  0x00041e                  lfa_REBOOT
                  0x00140c                  lfa_RECURSE
                  0x002500                  lfa_REMOTE
                  0x001550                  lfa_REPEAT
                  0x0019e8                  lfa_RESUME
                  0x0011e4                  lfa_REVEAL
                  0x000526                  lfa_RFETCH
                  0x00051e                  lfa_RFROM
                  0x0004e8                  lfa_ROT
                  0x002778                  lfa_ROWTOFADR
                  0x0009ce                  lfa_RPBREAK
                  0x00053e                  lfa_RPFETCH
                  0x000546                  lfa_RPSTORE
                  0x000610                  lfa_RSHIFT
                  0x000a0a                  lfa_S0
                  0x003188                  lfa_SAVEBUFFERS
                  0x00091c                  lfa_SCAN
                  0x002edc                  lfa_SCR
                  0x001a12                  lfa_SCRBUF
                  0x001aba                  lfa_SCRCHAR
                  0x001a54                  lfa_SCRLDN
                  0x001a48                  lfa_SCRLUP
                  0x002b32                  lfa_SDBLKTOADR
                  0x002b50                  lfa_SDCARD
                  0x002a0a                  lfa_SDCINIT
                  0x002a3c                  lfa_SDCREAD
                  0x002ad6                  lfa_SDCTOIMG
                  0x002a48                  lfa_SDCWRITE
                  0x002b26                  lfa_SDFIRST
                  0x001798                  lfa_SEMICOLON
                  0x0024d2                  lfa_SERCONS
                  0x001fb2                  lfa_SERENBL
                  0x0028e6                  lfa_SETHEADER
                  0x001a74                  lfa_SETX
                  0x001a7e                  lfa_SETY
                  0x001fd2                  lfa_SGETC
                  0x001fe8                  lfa_SGETCQ
                  0x001e4a                  lfa_SHARP
                  0x001e86                  lfa_SHARPGT
                  0x001e5a                  lfa_SHARPS
                  0x001e6e                  lfa_SIGN
                  0x000d3c                  lfa_SKIP
                  0x000672                  lfa_SLASHMOD
                  0x000d68                  lfa_SLASHSTRING
                  0x002d66                  lfa_SMALLBLK
                  0x002d9a                  lfa_SMALLEST
                  0x0006fc                  lfa_SMSLASHREM
                  0x0025f0                  lfa_SPACE
                  0x002602                  lfa_SPACES
                  0x00052e                  lfa_SPFETCH
                  0x000536                  lfa_SPSTORE
                  0x001fc8                  lfa_SPUTC
                  0x0013ca                  lfa_SQUOTE
                  0x0032f6                  lfa_SRAND
                  0x000aa8                  lfa_SRCSTORE
                  0x001fdc                  lfa_SREADYQ
                  0x000634                  lfa_STAR
                  0x000660                  lfa_STARSLASH
                  0x000668                  lfa_STARSLASHMOD
                  0x00093e                  lfa_STATE
                  0x0006e8                  lfa_STOD
                  0x000484                  lfa_STORE
                  0x001ea2                  lfa_STR
                  0x002bc6                  lfa_STREQUAL
                  0x002b7a                  lfa_STRFROM
                  0x0004d4                  lfa_SWAP
                  0x0009e8                  lfa_SYSCONS
                  0x000960                  lfa_SYSLATEST
                  0x000470                  lfa_TBLFETCH
                  0x00270e                  lfa_TBLFETCHH
                  0x002704                  lfa_TBLFETCHL
                  0x00047a                  lfa_TBLSTORE
                  0x001b68                  lfa_TGLCHAR
                  0x001512                  lfa_THEN
                  0x000988                  lfa_TIB
                  0x000a52                  lfa_TIBSIZE
                  0x001240                  lfa_TICK
                  0x00329e                  lfa_TICKS
                  0x0009b2                  lfa_TICKSOURCE
                  0x000ade                  lfa_TOBASE10
                  0x0010dc                  lfa_TOBODY
                  0x000882                  lfa_TOCHAR
                  0x000ee6                  lfa_TOCOUNTED
                  0x00056c                  lfa_TOCSTK
                  0x0027c4                  lfa_TOFLASH
                  0x00099e                  lfa_TOIN
                  0x001ff6                  lfa_TONE
                  0x000b8e                  lfa_TONUMBER
                  0x000516                  lfa_TOR
                  0x000a80                  lfa_TRUE
                  0x000a9c                  lfa_TSOURCE
                  0x00054e                  lfa_TUCK
                  0x001dd4                  lfa_TVPAGE
                  0x0004c0                  lfa_TWODROP
                  0x0004a2                  lfa_TWODUP
                  0x000468                  lfa_TWOFETCH
                  0x0005ec                  lfa_TWOMINUS
                  0x000504                  lfa_TWOOVER
                  0x0005dc                  lfa_TWOPLUS
                  0x001872                  lfa_TWORFETCH
                  0x00185c                  lfa_TWORFROM
                  0x0005fc                  lfa_TWOSLASH
                  0x0005f4                  lfa_TWOSTAR
                  0x000492                  lfa_TWOSTORE
                  0x0004de                  lfa_TWOSWAP
                  0x001846                  lfa_TWOTOR
                  0x002640                  lfa_TYPE
                  0x001f4c                  lfa_UDDOT
                  0x001f94                  lfa_UDDOTR
                  0x001f02                  lfa_UDOT
                  0x001eee                  lfa_UDOTR
                  0x002738                  lfa_UDREL
                  0x000688                  lfa_UDSLASHMOD
                  0x00064a                  lfa_UDSTAR
                  0x00082e                  lfa_UGREATER
                  0x000826                  lfa_ULESS
                  0x000a6a                  lfa_ULIMIT
                  0x0006a4                  lfa_UMAX
                  0x0006ae                  lfa_UMIN
                  0x00067c                  lfa_UMSLASHMOD
                  0x000642                  lfa_UMSTAR
                  0x002cd8                  lfa_UNLINK
                  0x00040a                  lfa_UNLOOP
                  0x0014ec                  lfa_UNTIL
                  0x00331a                  lfa_UNUSED
                  0x003052                  lfa_UPDATE
                  0x000d32                  lfa_UPPER
                  0x0032a8                  lfa_USEC
                  0x002c4e                  lfa_USEDLIST
                  0x001764                  lfa_VARIABLE
                  0x0009f6                  lfa_VERSION
                  0x000440                  lfa_VEXEC
                  0x001a2a                  lfa_VIDEO
                  0x002358                  lfa_VTATXY
                  0x002498                  lfa_VTCRLF
                  0x00237c                  lfa_VTDELBACK
                  0x00239e                  lfa_VTDELLN
                  0x0022c6                  lfa_VTEMIT
                  0x002250                  lfa_VTFILTER
                  0x002456                  lfa_VTGETCUR
                  0x0023ee                  lfa_VTGETP
                  0x0022b0                  lfa_VTKEY
                  0x00228a                  lfa_VTKEYQ
                  0x002368                  lfa_VTPAGE
                  0x00153a                  lfa_WHILE
                  0x0006b8                  lfa_WITHIN
                  0x000db0                  lfa_WORD
                  0x000ce4                  lfa_WORDS
                  0x00203a                  lfa_WWIP
                  0x002002                  lfa_XBLKTOADR
                  0x002206                  lfa_XOFF
                  0x0021fe                  lfa_XON
                  0x0007ac                  lfa_XOR
                  0x002116                  lfa_XRAM
                  0x002026                  lfa_XREAD
                  0x00201a                  lfa_XWRITE
                  0x0007f4                  lfa_ZERODIFF
                  0x0007ec                  lfa_ZEROEQ
                  0x000804                  lfa_ZEROGT
                  0x0007fc                  lfa_ZEROLT
                  0x0003c8                  name_EXIT
                  0x004cb8                  scroll_down
                  0x004c84                  scroll_up
                  0x004c3e                  toggle_char
                  0x007800                  vars_count

Configuration mmoire

Nom              Origine            Longueur           Attributs
data             0x001000           0x00c000           a !xr
reset            0x000000           0x000004  
ivt              0x000004           0x0001fc  
program          0x000200           0x0555ec           xr
FICD             0x0557f0           0x000002  
FPOR             0x0557f2           0x000002  
FWDT             0x0557f4           0x000002  
FOSC             0x0557f6           0x000002  
FOSCSEL          0x0557f8           0x000002  
FGS              0x0557fa           0x000002  
FUID0            0x800ff8           0x000002  
FUID1            0x800ffa           0x000002  
FUID2            0x800ffc           0x000002  
FUID3            0x800ffe           0x000002  
*default*        0x000000           0xffffffff  
aivt             0x000000           0xffffffff  

Script de l'diteurs de liens and table de projection mmoire

LOAD build/default/production/font.o
LOAD build/default/production/mcu_config_bits.o
LOAD build/default/production/forthex.o
                    0x0001                  __MPLAB_BUILD = 0x1
LOAD p24EP512GP202
LOAD /opt/microchip/xc16/v1.26/bin/bin/../../lib/libfx-elf.a
                    0x557f0                  __FICD = 0x557f0
                    0x557f2                  __FPOR = 0x557f2
                    0x557f4                  __FWDT = 0x557f4
                    0x557f6                  __FOSC = 0x557f6
                    0x557f8                  __FOSCSEL = 0x557f8
                    0x557fa                  __FGS = 0x557fa
                    0x800ff8                  __FUID0 = 0x800ff8
                    0x800ffa                  __FUID1 = 0x800ffa
                    0x800ffc                  __FUID2 = 0x800ffc
                    0x800ffe                  __FUID3 = 0x800ffe
                    0x0200                  __CODE_BASE = 0x200
                    0x555ec                  __CODE_LENGTH = 0x555ec
                    0x0004                  __IVT_BASE = 0x4
                    0x1000                  __DATA_BASE = 0x1000
                    0xc000                  __DATA_LENGTH = 0xc000

.reset            0x000000          0x4
                  0x000000          0x2 SHORT 0x200 ABSOLUTE (__reset)
                  0x000001          0x2 SHORT 0x4
                  0x000002          0x2 SHORT 0x0 ((ABSOLUTE (__reset) >> 0x10) & 0x7f)
                  0x000003          0x2 SHORT 0x0

.text
 *(.init)
 *(.user_init)
 *(.handle)
 *(.isr*)
 *(.libc)
 *(.libm)
 *(.libdsp)
 *(.lib*)

usercode
 *(usercode)

.intr             0x00022e        0x19a
 *(.intr)
 .intr            0x00022e        0x19a build/default/production/forthex.o
                  0x00022e                  __T2Interrupt
                  0x0002ba                  __OC2Interrupt
                  0x000320                  __U1RXInterrupt
                  0x00036e                  __U2RXInterrupt
                  0x000394                  __CNInterrupt
                  0x00039e                  __MathError
                  0x0003a4                  __StackError
                  0x0003aa                  __DefaultInterrupt
                  0x0003ac                  __T1Interrupt
                  0x0003c6                  __INT1Interrupt

.start.text
 *(.start.txt)

.sysdict            0x83c8       0x305c
 *(.sysdict)
 .sysdict           0x83c8       0x305c build/default/production/forthex.o
                    0x83c8                  name_EXIT
                    0x83d0                  EXIT
                    0x83d2                  lfa_NOP
                    0x83d8                  NOP
                    0x83dc                  lfa_CALL
                    0x83e4                  CALL
                    0x83e6                  LIT
                    0x83e8                  CLIT
                    0x83ea                  BRANCH
                    0x83ec                  TBRANCH
                    0x83ee                  ZBRANCH
                    0x83f0                  DODO
                    0x83f2                  DOQDO
                    0x83f4                  DOLOOP
                    0x83f6                  DOPLOOP
                    0x83f8                  lfa_DOI
                    0x83fc                  DOI
                    0x83fe                  lfa_DOL
                    0x8402                  DOL
                    0x8404                  lfa_DOJ
                    0x8408                  DOJ
                    0x840a                  lfa_UNLOOP
                    0x8414                  UNLOOP
                    0x8416                  lfa_IPFETCH
                    0x841c                  IPFETCH
                    0x841e                  lfa_REBOOT
                    0x8428                  REBOOT
                    0x842a                  lfa_EXECUTE
                    0x8434                  EXECUTE
                    0x8436                  lfa_FETCHEXEC
                    0x843e                  FETCHEXEC
                    0x8440                  lfa_VEXEC
                    0x8448                  VEXEC
                    0x844a                  lfa_FETCH
                    0x844e                  FETCH
                    0x8450                  lfa_CFETCH
                    0x8456                  CFETCH
                    0x8458                  lfa_EFETCH
                    0x845e                  EFETCH
                    0x8460                  lfa_ECFETCH
                    0x8466                  ECFETCH
                    0x8468                  lfa_TWOFETCH
                    0x846e                  TWOFETCH
                    0x8470                  lfa_TBLFETCH
                    0x8478                  TBLFETCH
                    0x847a                  lfa_TBLSTORE
                    0x8482                  TBLSTORE
                    0x8484                  lfa_STORE
                    0x8488                  STORE
                    0x848a                  lfa_CSTORE
                    0x8490                  CSTORE
                    0x8492                  lfa_TWOSTORE
                    0x8498                  TWOSTORE
                    0x849a                  lfa_DUP
                    0x84a0                  DUP
                    0x84a2                  lfa_TWODUP
                    0x84aa                  TWODUP
                    0x84ac                  lfa_QDUP
                    0x84b4                  QDUP
                    0x84b6                  lfa_DROP
                    0x84be                  DROP
                    0x84c0                  lfa_TWODROP
                    0x84c8                  TWODROP
                    0x84ca                  lfa_RDROP
                    0x84d2                  RDROP
                    0x84d4                  lfa_SWAP
                    0x84dc                  SWAP
                    0x84de                  lfa_TWOSWAP
                    0x84e6                  TWOSWAP
                    0x84e8                  lfa_ROT
                    0x84ee                  ROT
                    0x84f0                  lfa_NROT
                    0x84f8                  NROT
                    0x84fa                  lfa_OVER
                    0x8502                  OVER
                    0x8504                  lfa_TWOOVER
                    0x850c                  TWOOVER
                    0x850e                  lfa_NIP
                    0x8514                  NIP
                    0x8516                  lfa_TOR
                    0x851c                  TOR
                    0x851e                  lfa_RFROM
                    0x8524                  RFROM
                    0x8526                  lfa_RFETCH
                    0x852c                  RFETCH
                    0x852e                  lfa_SPFETCH
                    0x8534                  SPFETCH
                    0x8536                  lfa_SPSTORE
                    0x853c                  SPSTORE
                    0x853e                  lfa_RPFETCH
                    0x8544                  RPFETCH
                    0x8546                  lfa_RPSTORE
                    0x854c                  RPSTORE
                    0x854e                  lfa_TUCK
                    0x8556                  TUCK
                    0x8558                  lfa_DEPTH
                    0x8560                  DEPTH
                    0x8562                  lfa_PICK
                    0x856a                  PICK
                    0x856c                  lfa_TOCSTK
                    0x8574                  TOCSTK
                    0x8576                  lfa_CSTKFROM
                    0x857e                  CSTKFROM
                    0x8580                  lfa_MSB
                    0x8586                  MSB
                    0x8588                  lfa_MAXINT
                    0x8592                  MAXINT
                    0x8594                  lfa_MININT
                    0x859e                  MININT
                    0x85a0                  lfa_HEX
                    0x85a6                  HEX
                    0x85b2                  lfa_DECIMAL
                    0x85bc                  DECIMAL
                    0x85c8                  lfa_PLUS
                    0x85cc                  PLUS
                    0x85ce                  lfa_MINUS
                    0x85d2                  MINUS
                    0x85d4                  lfa_ONEPLUS
                    0x85da                  ONEPLUS
                    0x85dc                  lfa_TWOPLUS
                    0x85e2                  TWOPLUS
                    0x85e4                  lfa_ONEMINUS
                    0x85ea                  ONEMINUS
                    0x85ec                  lfa_TWOMINUS
                    0x85f2                  TWOMINUS
                    0x85f4                  lfa_TWOSTAR
                    0x85fa                  TWOSTAR
                    0x85fc                  lfa_TWOSLASH
                    0x8602                  TWOSLASH
                    0x8604                  lfa_LSHIFT
                    0x860e                  LSHIFT
                    0x8610                  lfa_RSHIFT
                    0x861a                  RSHIFT
                    0x861c                  lfa_PLUSSTORE
                    0x8622                  PLUSSTORE
                    0x8624                  lfa_DPLUS
                    0x862a                  DPLUS
                    0x862c                  lfa_MPLUS
                    0x8632                  MPLUS
                    0x8634                  lfa_STAR
                    0x8638                  STAR
                    0x863a                  lfa_MSTAR
                    0x8640                  MSTAR
                    0x8642                  lfa_UMSTAR
                    0x8648                  UMSTAR
                    0x864a                  lfa_UDSTAR
                    0x8650                  UDSTAR
                    0x8652                  lfa_DIVIDE
                    0x8656                  DIVIDE
                    0x8658                  lfa_MOD
                    0x865e                  MOD
                    0x8660                  lfa_STARSLASH
                    0x8666                  STARSLASH
                    0x8668                  lfa_STARSLASHMOD
                    0x8670                  STARSLASHMOD
                    0x8672                  lfa_SLASHMOD
                    0x867a                  SLASHMOD
                    0x867c                  lfa_UMSLASHMOD
                    0x8686                  UMSLASHMOD
                    0x8688                  lfa_UDSLASHMOD
                    0x8692                  UDSLASHMOD
                    0x8694                  lfa_MAX
                    0x869a                  MAX
                    0x869c                  lfa_MIN
                    0x86a2                  MIN
                    0x86a4                  lfa_UMAX
                    0x86ac                  UMAX
                    0x86ae                  lfa_UMIN
                    0x86b6                  UMIN
                    0x86b8                  lfa_WITHIN
                    0x86c2                  WITHIN
                    0x86c4                  lfa_EVEN
                    0x86cc                  EVEN
                    0x86ce                  lfa_ODD
                    0x86d4                  ODD
                    0x86d6                  lfa_ABS
                    0x86dc                  ABS
                    0x86de                  lfa_DABS
                    0x86e6                  DABS
                    0x86e8                  lfa_STOD
                    0x86ee                  STOD
                    0x86f0                  lfa_QNEGATE
                    0x86fa                  QNEGATE
                    0x86fc                  lfa_SMSLASHREM
                    0x8706                  SMSLASHREM
                    0x872a                  lfa_FMSLASHMOD
                    0x8734                  FMSLASHMOD
                    0x8770                  lfa_EVARPLUS
                    0x8778                  EVARPLUS
                    0x8786                  lfa_EVARMINUS
                    0x878e                  EVARMINUS
                    0x879c                  lfa_AND
                    0x87a2                  AND
                    0x87a4                  lfa_OR
                    0x87aa                  OR
                    0x87ac                  lfa_XOR
                    0x87b2                  XOR
                    0x87b4                  lfa_NOT
                    0x87ba                  NOT
                    0x87bc                  lfa_INVERT
                    0x87c6                  INVERT
                    0x87c8                  lfa_DINVERT
                    0x87d2                  DINVERT
                    0x87d4                  lfa_NEGATE
                    0x87de                  NEGATE
                    0x87e0                  lfa_DNEGATE
                    0x87ea                  DNEGATE
                    0x87ec                  lfa_ZEROEQ
                    0x87f2                  ZEROEQ
                    0x87f4                  lfa_ZERODIFF
                    0x87fa                  ZERODIFF
                    0x87fc                  lfa_ZEROLT
                    0x8802                  ZEROLT
                    0x8804                  lfa_ZEROGT
                    0x880a                  ZEROGT
                    0x880c                  lfa_EQUAL
                    0x8810                  EQUAL
                    0x8812                  lfa_NOTEQ
                    0x8818                  NOTEQ
                    0x881a                  lfa_LESS
                    0x881e                  LESS
                    0x8820                  lfa_GREATER
                    0x8824                  GREATER
                    0x8826                  lfa_ULESS
                    0x882c                  ULESS
                    0x882e                  lfa_UGREATER
                    0x8834                  UGREATER
                    0x8836                  lfa_CELL
                    0x883e                  CELL
                    0x8840                  lfa_CELLPLUS
                    0x8848                  CELLPLUS
                    0x884a                  lfa_CELLS
                    0x8852                  CELLS
                    0x8854                  lfa_ALIGN
                    0x885c                  ALIGN
                    0x8876                  lfa_ALIGNED
                    0x8880                  ALIGNED
                    0x8882                  lfa_TOCHAR
                    0x888a                  TOCHAR
                    0x888c                  lfa_HERE
                    0x8894                  HERE
                    0x889c                  lfa_MOVE
                    0x88a4                  MOVE
                    0x88a6                  lfa_CMOVE
                    0x88ae                  CMOVE
                    0x88b0                  lfa_CMOVETO
                    0x88ba                  CMOVETO
                    0x88bc                  lfa_CHARS
                    0x88c4                  CHARS
                    0x88c8                  lfa_CHARPLUS
                    0x88d0                  CHARPLUS
                    0x88d6                  lfa_CHAR
                    0x88de                  CHAR
                    0x8904                  lfa_COMPILECHAR
                    0x890e                  COMPILECHAR
                    0x891c                  lfa_SCAN
                    0x8924                  SCAN
                    0x8926                  lfa_FILL
                    0x892e                  FILL
                    0x8930                  lfa_MINUSTRAILING
                    0x893c                  MINUSTRAILING
                    0x893e                  lfa_STATE
                    0x8946                  STATE
                    0x894a                  lfa_DP
                    0x8950                  DP
                    0x8954                  lfa_BASE
                    0x895c                  BASE
                    0x8960                  lfa_SYSLATEST
                    0x896c                  SYSLATEST
                    0x8970                  lfa_LATEST
                    0x897a                  LATEST
                    0x897e                  lfa_PAD
                    0x8984                  PAD
                    0x8988                  lfa_TIB
                    0x898e                  TIB
                    0x8992                  lfa_PASTE
                    0x899a                  PASTE
                    0x899e                  lfa_TOIN
                    0x89a4                  TOIN
                    0x89a8                  lfa_HP
                    0x89ae                  HP
                    0x89b2                  lfa_TICKSOURCE
                    0x89bc                  TICKSOURCE
                    0x89c0                  lfa_CNTSOURCE
                    0x89ca                  CNTSOURCE
                    0x89ce                  lfa_RPBREAK
                    0x89d8                  RPBREAK
                    0x89dc                  lfa_DBGEN
                    0x89e4                  DBGEN
                    0x89e8                  lfa_SYSCONS
                    0x89f2                  SYSCONS
                    0x89f6                  lfa_VERSION
                    0x8a00                  VERSION
                    0x8a02                  lfa_R0
                    0x8a08                  R0
                    0x8a0a                  lfa_S0
                    0x8a10                  S0
                    0x8a12                  lfa_RAMEND
                    0x8a1c                  RAMEND
                    0x8a1e                  lfa_IMMED
                    0x8a26                  IMMED
                    0x8a28                  lfa_HIDDEN
                    0x8a32                  HIDDEN
                    0x8a34                  lfa_NMARK
                    0x8a3c                  NMARK
                    0x8a3e                  lfa_LENMASK
                    0x8a48                  LENMASK
                    0x8a4a                  lfa_BL
                    0x8a50                  BL
                    0x8a52                  lfa_TIBSIZE
                    0x8a5c                  TIBSIZE
                    0x8a5e                  lfa_PADSIZE
                    0x8a68                  PADSIZE
                    0x8a6a                  lfa_ULIMIT
                    0x8a74                  ULIMIT
                    0x8a76                  lfa_DOCOL
                    0x8a7e                  DOCOL
                    0x8a80                  lfa_TRUE
                    0x8a88                  TRUE
                    0x8a8a                  lfa_FALSE
                    0x8a92                  FALSE
                    0x8a94                  lfa_DP0
                    0x8a9a                  DP0
                    0x8a9c                  lfa_TSOURCE
                    0x8aa6                  TSOURCE
                    0x8aa8                  lfa_SRCSTORE
                    0x8ab2                  SRCSTORE
                    0x8ab4                  lfa_DECIMALQ
                    0x8ac0                  DECIMALQ
                    0x8ade                  lfa_TOBASE10
                    0x8ae8                  TOBASE10
                    0x8afc                  lfa_QDIGIT
                    0x8b06                  QDIGIT
                    0x8b4e                  lfa_QDOUBLE
                    0x8b58                  QDOUBLE
                    0x8b8e                  lfa_TONUMBER
                    0x8b98                  TONUMBER
                    0x8bf8                  lfa_QSIGN
                    0x8c00                  QSIGN
                    0x8c24                  lfa_QBASE
                    0x8c2c                  QBASE
                    0x8c82                  lfa_QNUMBER
                    0x8c8c                  QNUMBER
                    0x8ce4                  lfa_WORDS
                    0x8cec                  WORDS
                    0x8d32                  lfa_UPPER
                    0x8d3a                  UPPER
                    0x8d3c                  lfa_SKIP
                    0x8d44                  SKIP
                    0x8d46                  lfa_ADRTOIN
                    0x8d50                  ADRTOIN
                    0x8d68                  lfa_SLASHSTRING
                    0x8d72                  SLASHSTRING
                    0x8d82                  lfa_PARSE
                    0x8d8a                  PARSE
                    0x8db0                  lfa_WORD
                    0x8db8                  WORD
                    0x8dd6                  lfa_FIND
                    0x8dde                  FIND
                    0x8de0                  lfa_ACCEPT
                    0x8dea                  ACCEPT
                    0x8ea2                  lfa_COUNT
                    0x8eaa                  COUNT
                    0x8ebc                  lfa_ERROR
                    0x8ec4                  ERROR
                    0x8ee6                  lfa_TOCOUNTED
                    0x8ef2                  TOCOUNTED
                    0x8f00                  lfa_INTERPRET
                    0x8f0c                  INTERPRET
                    0x8f66                  lfa_EVAL
                    0x8f72                  EVAL
                    0x8f90                  OK
                    0x8fb6                  lfa_ABORT
                    0x8fbe                  ABORT
                    0x8fe0                  QABORT
                    0x8ff6                  lfa_ABORTQUOTE
                    0x9000                  ABORTQUOTE
                    0x900a                  lfa_CLIP
                    0x9012                  CLIP
                    0x902e                  lfa_GETCLIP
                    0x9038                  GETCLIP
                    0x904e                  REPL
                    0x9076                  lfa_QUIT
                    0x907e                  QUIT
                    0x908e                  lfa_LPAREN
                    0x9092                  LPAREN
                    0x909e                  lfa_COMMENT
                    0x90a2                  COMMENT
                    0x90ac                  lfa_NFATOLFA
                    0x90b6                  NFATOLFA
                    0x90c0                  lfa_NFATOCFA
                    0x90ca                  NFATOCFA
                    0x90dc                  lfa_TOBODY
                    0x90e4                  TOBODY
                    0x90fa                  lfa_CFATONFA
                    0x9104                  CFATONFA
                    0x916e                  lfa_QEMPTY
                    0x9178                  QEMPTY
                    0x9182                  lfa_IMMEDIATE
                    0x918e                  IMMEDIATE
                    0x91a8                  lfa_HIDE
                    0x91b0                  HIDE
                    0x91ca                  NAMEMARK
                    0x91e4                  lfa_REVEAL
                    0x91ee                  REVEAL
                    0x920a                  lfa_ALLOT
                    0x9212                  ALLOT
                    0x921a                  lfa_COMMA
                    0x921e                  COMMA
                    0x922c                  lfa_CCOMMA
                    0x9232                  CCOMMA
                    0x9240                  lfa_TICK
                    0x9244                  TICK
                    0x9270                  lfa_COMPILETICK
                    0x9276                  COMPILETICK
                    0x9284                  lfa_MARKADDR
                    0x928c                  MARKADDR
                    0x9294                  lfa_BACKJUMP
                    0x92a0                  BACKJUMP
                    0x92ac                  lfa_MARKSLOT
                    0x92b4                  MARKSLOT
                    0x92c2                  lfa_FOREJUMP
                    0x92ce                  FOREJUMP
                    0x92e0                  lfa_LBRACKET
                    0x92e4                  LBRACKET
                    0x92f0                  lfa_RBRACKET
                    0x92f4                  RBRACKET
                    0x9300                  lfa_CFA_COMMA
                    0x9308                  CFA_COMMA
                    0x9318                  lfa_QWORD
                    0x9320                  QWORD
                    0x933e                  lfa_POSTONE
                    0x934a                  POSTONE
                    0x9366                  lfa_LITERAL
                    0x9370                  LITERAL
                    0x9382                  DOSTR
                    0x9398                  STRQUOTE
                    0x93a0                  RT_CQUOTE
                    0x93a6                  DOTSTR
                    0x93b0                  SLIT
                    0x93bc                  STRCOMPILE
                    0x93ca                  lfa_SQUOTE
                    0x93d0                  SQUOTE
                    0x93dc                  lfa_CQUOTE
                    0x93e2                  CQUOTE
                    0x93ee                  lfa_DOTQUOTE
                    0x93f4                  DOTQUOTE
                    0x940c                  lfa_RECURSE
                    0x9416                  RECURSE
                    0x9422                  lfa_DO
                    0x9428                  DO
                    0x943c                  lfa_QDO
                    0x9442                  QDO
                    0x9464                  lfa_LEAVE
                    0x946c                  LEAVE
                    0x947e                  FIXLEAVE
                    0x94a0                  lfa_LOOP
                    0x94a8                  LOOP
                    0x94b4                  lfa_PLUSLOOP
                    0x94bc                  PLUSLOOP
                    0x94c8                  lfa_BEGIN
                    0x94d0                  BEGIN
                    0x94d8                  lfa_AGAIN
                    0x94e0                  AGAIN
                    0x94ec                  lfa_UNTIL
                    0x94f4                  UNTIL
                    0x9500                  lfa_IIF
                    0x9506                  IIF
                    0x9512                  lfa_THEN
                    0x951a                  THEN
                    0x9522                  lfa_ELSE
                    0x952a                  ELSE
                    0x953a                  lfa_WHILE
                    0x9542                  WHILE
                    0x9550                  lfa_REPEAT
                    0x955a                  REPEAT
                    0x9568                  lfa_CASE
                    0x9570                  CASE
                    0x957a                  lfa_OF
                    0x9580                  OF
                    0x9594                  lfa_ENDOF
                    0x959c                  ENDOF
                    0x95ac                  lfa_ENDCASE
                    0x95b6                  ENDCASE
                    0x95cc                  lfa_QCOMPILE
                    0x95d8                  QCOMPILE
                    0x960a                  lfa_QNAME
                    0x9612                  QNAME
                    0x9626                  lfa_COLON_NO_NAME
                    0x9630                  COLON_NO_NAME
                    0x963c                  lfa_EXITCOMMA
                    0x9644                  EXITCOMMA
                    0x964c                  lfa_HEADER
                    0x9656                  HEADER
                    0x9680                  lfa_FORGET
                    0x968a                  FORGET
                    0x96c6                  lfa_MARKER
                    0x96d0                  MARKER
                    0x96ea                  RT_MARKER
                    0x96fe                  lfa_COLON
                    0x9702                  COLON
                    0x970e                  lfa_CREATE
                    0x9718                  CREATE
                    0x972a                  RT_DOES
                    0x9742                  lfa_DOESTO
                    0x974a                  DOESTO
                    0x9764                  lfa_VARIABLE
                    0x9770                  VARIABLE
                    0x977c                  lfa_CONSTANT
                    0x9788                  CONSTANT
                    0x9798                  lfa_SEMICOLON
                    0x979c                  SEMICOLON
                    0x97a8                  NOINIT
                    0x97cc                  DEFEREXEC
                    0x97d4                  lfa_DEFER
                    0x97dc                  DEFER
                    0x97ea                  lfa_DEFERSTORE
                    0x97f4                  DEFERSTORE
                    0x97fc                  lfa_DEFERFETCH
                    0x9806                  DEFERFETCH
                    0x980e                  lfa_IS
                    0x9814                  IS
                    0x981e                  lfa_ACTIONOF
                    0x982a                  ACTIONOF
                    0x9834                  lfa_DOTPAREN
                    0x983a                  DOTPAREN
                    0x9846                  lfa_TWOTOR
                    0x984c                  TWOTOR
                    0x985c                  lfa_TWORFROM
                    0x9862                  TWORFROM
                    0x9872                  lfa_TWORFETCH
                    0x9878                  TWORFETCH
                    0x988c                  lfa_QDSP
                    0x9894                  QDSP
                    0x98d8                  lfa_DOTS
                    0x98de                  DOTS
                    0x9908                  lfa_DOTRTN
                    0x9910                  DOTRTN
                    0x993e                  lfa_DUMP
                    0x9946                  DUMP
                    0x999e                  lfa_DEBUG
                    0x99a6                  DEBUG
                    0x99ae                  lfa_BREAK
                    0x99b6                  BREAK
                    0x99e8                  lfa_RESUME
                    0x99f2                  RESUME
                    0x9a12                  lfa_SCRBUF
                    0x9a1c                  SCRBUF
                    0x9a1e                  lfa_HTAB
                    0x9a26                  HTAB
                    0x9a28                  TVOUT_INIT
                    0x9a2a                  lfa_VIDEO
                    0x9a32                  VIDEO
                    0x9a34                  lfa_CURENBL
                    0x9a3e                  CURENBL
                    0x9a40                  lfa_CLS
                    0x9a46                  CLS
                    0x9a48                  lfa_SCRLUP
                    0x9a52                  SCRLUP
                    0x9a54                  lfa_SCRLDN
                    0x9a5e                  SCRLDN
                    0x9a60                  lfa_GETX
                    0x9a68                  GETX
                    0x9a6a                  lfa_GETY
                    0x9a72                  GETY
                    0x9a74                  lfa_SETX
                    0x9a7c                  SETX
                    0x9a7e                  lfa_SETY
                    0x9a86                  SETY
                    0x9a88                  lfa_CURADR
                    0x9a92                  CURADR
                    0x9a94                  lfa_CURPOS
                    0x9a9e                  CURPOS
                    0x9aa6                  lfa_LCGETCUR
                    0x9ab2                  LCGETCUR
                    0x9aba                  lfa_SCRCHAR
                    0x9ac4                  SCRCHAR
                    0x9ac6                  lfa_CHRTOSCR
                    0x9ad0                  CHRTOSCR
                    0x9ad2                  lfa_INVLN
                    0x9ada                  INVLN
                    0x9adc                  lfa_LCLEFT
                    0x9ae6                  LCLEFT
                    0x9ae8                  lfa_LCRIGHT
                    0x9af4                  LCRIGHT
                    0x9af6                  lfa_LCHOME
                    0x9b00                  LCHOME
                    0x9b02                  lfa_LCEND
                    0x9b0c                  LCEND
                    0x9b52                  lfa_LCUP
                    0x9b5a                  LCUP
                    0x9b5c                  lfa_LCDOWN
                    0x9b66                  LCDOWN
                    0x9b68                  lfa_TGLCHAR
                    0x9b72                  TGLCHAR
                    0x9b74                  lfa_PUTC
                    0x9b7c                  PUTC
                    0x9b7e                  lfa_CR
                    0x9b84                  CR
                    0x9b86                  lfa_NEXTCOLON
                    0x9b94                  NEXTCOLON
                    0x9bd6                  lfa_LCDEL
                    0x9be0                  LCDEL
                    0x9c16                  lfa_LCINSRT
                    0x9c22                  LCINSRT
                    0x9c64                  lfa_BACKDEL
                    0x9c6e                  BACKDEL
                    0x9c7c                  lfa_CLRLN
                    0x9c84                  CLRLN
                    0x9c86                  lfa_LCBEL
                    0x9c90                  LCBEL
                    0x9c9e                  lfa_LCEMIT
                    0x9ca8                  LCEMIT
                    0x9dc6                  lfa_LCEMITQ
                    0x9dd2                  LCEMITQ
                    0x9dd4                  lfa_TVPAGE
                    0x9dde                  TVPAGE
                    0x9de4                  lfa_DIGIT
                    0x9dec                  DIGIT
                    0x9e06                  lfa_EXTRACT
                    0x9e10                  EXTRACT
                    0x9e1a                  lfa_LTSHARP
                    0x9e20                  LTSHARP
                    0x9e30                  lfa_HOLD
                    0x9e38                  HOLD
                    0x9e4a                  lfa_SHARP
                    0x9e4e                  SHARP
                    0x9e5a                  lfa_SHARPS
                    0x9e60                  SHARPS
                    0x9e6e                  lfa_SIGN
                    0x9e76                  SIGN
                    0x9e86                  lfa_SHARPGT
                    0x9e8c                  SHARPGT
                    0x9ea2                  lfa_STR
                    0x9ea8                  STR
                    0x9ebc                  lfa_COLFILL
                    0x9ec6                  COLFILL
                    0x9edc                  lfa_DOTR
                    0x9ee2                  DOTR
                    0x9eee                  lfa_UDOTR
                    0x9ef4                  UDOTR
                    0x9f02                  lfa_UDOT
                    0x9f08                  UDOT
                    0x9f12                  lfa_DOT
                    0x9f16                  DOT
                    0x9f2c                  lfa_QUESTION
                    0x9f30                  QUESTION
                    0x9f3e                  lfa_CQUESTION
                    0x9f44                  CQUESTION
                    0x9f4c                  lfa_UDDOT
                    0x9f52                  UDDOT
                    0x9f60                  lfa_DDOT
                    0x9f66                  DDOT
                    0x9f7e                  lfa_DDOTR
                    0x9f84                  DDOTR
                    0x9f94                  lfa_UDDOTR
                    0x9f9c                  UDDOTR
                    0x9fb0                  SERIAL_INIT
                    0x9fb2                  lfa_SERENBL
                    0x9fbc                  SERENBL
                    0x9fbe                  lfa_BAUD
                    0x9fc6                  BAUD
                    0x9fc8                  lfa_SPUTC
                    0x9fd0                  SPUTC
                    0x9fd2                  lfa_SGETC
                    0x9fda                  SGETC
                    0x9fdc                  lfa_SREADYQ
                    0x9fe6                  SREADYQ
                    0x9fe8                  lfa_SGETCQ
                    0x9ff2                  SGETCQ
                    0x9ff4                  SOUND_INIT
                    0x9ff6                  lfa_TONE
                    0x9ffe                  TONE
                    0xa000                  STORE_INIT
                    0xa002                  lfa_XBLKTOADR
                    0xa00e                  XBLKTOADR
                    0xa01a                  lfa_XWRITE
                    0xa024                  XWRITE
                    0xa026                  lfa_XREAD
                    0xa02e                  XREAD
                    0xa030                  lfa_QWIP
                    0xa038                  QWIP
                    0xa03a                  lfa_WWIP
                    0xa042                  WWIP
                    0xa04c                  lfa_EEBLKTOADR
                    0xa058                  EEBLKTOADR
                    0xa064                  lfa_RAMTOEE
                    0xa06e                  RAMTOEE
                    0xa070                  lfa_EEREAD
                    0xa07a                  EEREAD
                    0xa07c                  lfa_EPAGE
                    0xa084                  EPAGE
                    0xa086                  lfa_ESECTOR
                    0xa090                  ESECTOR
                    0xa092                  lfa_EALL
                    0xa09a                  EALL
                    0xa09c                  lfa_EERASE
                    0xa0a6                  EERASE
                    0xa0a8                  lfa_EEWRITE
                    0xa0b2                  EEWRITE
                    0xa0e2                  lfa_DEVID
                    0xa0ea                  DEVID
                    0xa0ec                  lfa_FN_READ
                    0xa0f6                  FN_READ
                    0xa0f8                  lfa_FN_WRITE
                    0xa104                  FN_WRITE
                    0xa106                  lfa_FN_BLKTOADR
                    0xa114                  FN_BLKTOADR
                    0xa116                  lfa_XRAM
                    0xa11e                  XRAM
                    0xa128                  lfa_EEPROM
                    0xa132                  EEPROM
                    0xa13c                  KBD_INIT
                    0xa13e                  KBD_RESET
                    0xa140                  lfa_LCEKEYQ
                    0xa14c                  LCEKEYQ
                    0xa14e                  lfa_LCEKEY
                    0xa158                  LCEKEY
                    0xa15a                  lfa_LCFILTER
                    0xa166                  LCFILTER
                    0xa168                  lfa_LCKEYQ
                    0xa172                  LCKEYQ
                    0xa18e                  lfa_LCKEY
                    0xa198                  LCKEY
                    0xa1fe                  lfa_XON
                    0xa204                  XON
                    0xa206                  lfa_XOFF
                    0xa20e                  XOFF
                    0xa250                  lfa_VTFILTER
                    0xa25c                  VTFILTER
                    0xa28a                  lfa_VTKEYQ
                    0xa294                  VTKEYQ
                    0xa2b0                  lfa_VTKEY
                    0xa2ba                  VTKEY
                    0xa2c6                  lfa_VTEMIT
                    0xa2d0                  VTEMIT
                    0xa358                  lfa_VTATXY
                    0xa364                  VTATXY
                    0xa368                  lfa_VTPAGE
                    0xa372                  VTPAGE
                    0xa37c                  lfa_VTDELBACK
                    0xa38a                  VTDELBACK
                    0xa39e                  lfa_VTDELLN
                    0xa3aa                  VTDELLN
                    0xa3cc                  lfa_DSR
                    0xa3d2                  DSR
                    0xa3ee                  lfa_VTGETP
                    0xa3f8                  VTGETP
                    0xa42a                  lfa_ESCSEQQ
                    0xa434                  ESCSEQQ
                    0xa456                  lfa_VTGETCUR
                    0xa462                  VTGETCUR
                    0xa498                  lfa_VTCRLF
                    0xa4a2                  VTCRLF
                    0xa4b2                  lfa_LCCONS
                    0xa4bc                  LCCONS
                    0xa4d2                  lfa_SERCONS
                    0xa4dc                  SERCONS
                    0xa4f2                  lfa_LOCAL
                    0xa4fa                  LOCAL
                    0xa500                  lfa_REMOTE
                    0xa50a                  REMOTE
                    0xa510                  lfa_CONSOLE
                    0xa51a                  CONSOLE
                    0xa528                  lfa_KEY
                    0xa52e                  KEY
                    0xa53c                  lfa_KEYQ
                    0xa544                  KEYQ
                    0xa552                  lfa_EKEY
                    0xa55a                  EKEY
                    0xa568                  lfa_EKEYQ
                    0xa570                  EKEYQ
                    0xa57e                  lfa_EMIT
                    0xa586                  EMIT
                    0xa594                  lfa_EMITQ
                    0xa59c                  EMITQ
                    0xa5aa                  lfa_ATXY
                    0xa5b2                  ATXY
                    0xa5c0                  lfa_PAGE
                    0xa5c8                  PAGE
                    0xa5d6                  lfa_EKEYTOCHAR
                    0xa5e2                  EKEYTOCHAR
                    0xa5f0                  lfa_SPACE
                    0xa5f8                  SPACE
                    0xa602                  lfa_SPACES
                    0xa60c                  SPACES
                    0xa62c                  lfa_CLEARLN
                    0xa636                  CLEARLN
                    0xa640                  lfa_TYPE
                    0xa648                  TYPE
                    0xa66a                  lfa_DELETE
                    0xa674                  DELETE
                    0xa67e                  lfa_DELBACK
                    0xa688                  DELBACK
                    0xa692                  lfa_DELLINE
                    0xa69c                  DELLINE
                    0xa6a6                  lfa_NEWLINE
                    0xa6b0                  NEWLINE
                    0xa6ba                  lfa_GETCUR
                    0xa6c4                  GETCUR
                    0xa6d2                  lfa_MFLASH
                    0xa6dc                  MFLASH
                    0xa6e8                  lfa_FBUFFER
                    0xa6f2                  FBUFFER
                    0xa704                  lfa_TBLFETCHL
                    0xa70c                  TBLFETCHL
                    0xa70e                  lfa_TBLFETCHH
                    0xa716                  TBLFETCHH
                    0xa718                  lfa_IFETCH
                    0xa71e                  IFETCH
                    0xa720                  lfa_FADDR
                    0xa728                  FADDR
                    0xa72a                  lfa_FNEXT
                    0xa732                  FNEXT
                    0xa734                  WRITE_LATCH
                    0xa736                  FLASH_OP
                    0xa738                  lfa_UDREL
                    0xa740                  UDREL
                    0xa742                  lfa_QFLIMITS
                    0xa74e                  QFLIMITS
                    0xa778                  lfa_ROWTOFADR
                    0xa784                  ROWTOFADR
                    0xa78e                  lfa_FERASE
                    0xa798                  FERASE
                    0xa7c4                  lfa_TOFLASH
                    0xa7ce                  TOFLASH
                    0xa7e8                  lfa_RAMTOFLASH
                    0xa7f4                  RAMTOFLASH
                    0xa828                  lfa_FLASHTORAM
                    0xa834                  FLASHTORAM
                    0xa874                  lfa_IMGHEAD
                    0xa87e                  IMGHEAD
                    0xa880                  lfa_MAGIC
                    0xa888                  MAGIC
                    0xa88a                  lfa_IMGROW
                    0xa894                  IMGROW
                    0xa896                  lfa_IMGSIGN
                    0xa8a0                  IMGSIGN
                    0xa8aa                  lfa_IMGLATST
                    0xa8b6                  IMGLATST
                    0xa8c0                  lfa_IMGDP
                    0xa8c8                  IMGDP
                    0xa8d2                  lfa_IMGSIZE
                    0xa8dc                  IMGSIZE
                    0xa8e6                  lfa_SETHEADER
                    0xa8f2                  SETHEADER
                    0xa914                  lfa_IMGADDR
                    0xa91e                  IMGADDR
                    0xa92a                  lfa_QIMG
                    0xa932                  QIMG
                    0xa948                  lfa_QSIZE
                    0xa950                  QSIZE
                    0xa958                  lfa_ERASEROWS
                    0xa964                  ERASEROWS
                    0xa996                  lfa_IMGSAVE
                    0xa9a0                  IMGSAVE
                    0xa9be                  lfa_IMGLOAD
                    0xa9c8                  IMGLOAD
                    0xaa0a                  lfa_SDCINIT
                    0xaa14                  SDCINIT
                    0xaa16                  lfa_QSDC
                    0xaa1e                  QSDC
                    0xaa20                  lfa_QSDCOK
                    0xaa2a                  QSDCOK
                    0xaa3c                  lfa_SDCREAD
                    0xaa46                  SDCREAD
                    0xaa48                  lfa_SDCWRITE
                    0xaa54                  SDCWRITE
                    0xaa56                  lfa_NSECTOR
                    0xaa60                  NSECTOR
                    0xaa88                  lfa_IMGTOSDC
                    0xaa92                  IMGTOSDC
                    0xaad6                  lfa_SDCTOIMG
                    0xaae0                  SDCTOIMG
                    0xab26                  lfa_SDFIRST
                    0xab30                  SDFIRST
                    0xab32                  lfa_SDBLKTOADR
                    0xab3e                  SDBLKTOADR
                    0xab50                  lfa_SDCARD
                    0xab5a                  SDCARD
                    0xab64                  lfa_ESTRFROM
                    0xab6c                  ESTRFROM
                    0xab7a                  lfa_STRFROM
                    0xab82                  STRFROM
                    0xab90                  lfa_CSTRTORAM
                    0xab9c                  CSTRTORAM
                    0xabc6                  lfa_STREQUAL
                    0xabce                  STREQUAL
                    0xac14                  lfa_HEAP_INIT
                    0xac20                  HEAP_INIT
                    0xac22                  lfa_HEAPSIZE
                    0xac2e                  HEAPSIZE
                    0xac30                  lfa_HEAPFREE
                    0xac3c                  HEAPFREE
                    0xac3e                  FREE_BYTES_STORE
                    0xac40                  lfa_FREELIST
                    0xac4c                  FREELIST
                    0xac4e                  lfa_USEDLIST
                    0xac5a                  USEDLIST
                    0xac5c                  lfa_BSIZEFETCH
                    0xac66                  BSIZEFETCH
                    0xac72                  lfa_BSIZESTORE
                    0xac7c                  BSIZESTORE
                    0xac88                  lfa_NLNKFETCH
                    0xac90                  NLNKFETCH
                    0xac9c                  lfa_PLNKFETCH
                    0xaca4                  PLNKFETCH
                    0xacb0                  lfa_NLNKSTORE
                    0xacb8                  NLNKSTORE
                    0xacc4                  lfa_PLNKSTORE
                    0xaccc                  PLNKSTORE
                    0xacd8                  lfa_UNLINK
                    0xace2                  UNLINK
                    0xad30                  lfa_PREPEND
                    0xad3a                  PREPEND
                    0xad54                  lfa_QFIT
                    0xad5c                  QFIT
                    0xad66                  lfa_SMALLBLK
                    0xad72                  SMALLBLK
                    0xad9a                  lfa_SMALLEST
                    0xada6                  SMALLEST
                    0xadd2                  lfa_CUT
                    0xadd8                  CUT
                    0xae26                  lfa_MALLOC
                    0xae30                  MALLOC
                    0xae60                  lfa_QINLIST
                    0xae6a                  QINLIST
                    0xae88                  lfa_FREE
                    0xae90                  FREE
                    0xaed4                  lfa_BLK
                    0xaeda                  BLK
                    0xaedc                  lfa_SCR
                    0xaee2                  SCR
                    0xaee4                  lfa_BLKDEV
                    0xaeee                  BLKDEV
                    0xaef0                  lfa_BUFARRAY
                    0xaefc                  BUFARRAY
                    0xaefe                  STRUCADR
                    0xaf0c                  DATA
                    0xaf18                  BLOCK_INIT
                    0xaf3e                  OWNQ
                    0xaf66                  BUFFEREDQ
                    0xaf94                  NOTUSED
                    0xafc0                  OLDEST
                    0xafee                  UPDATEDFETCH
                    0xaffa                  BLKDEVFETCH
                    0xb002                  lfa_BLKTOADR
                    0xb00c                  BLKTOADR
                    0xb024                  lfa_FIELDS
                    0xb02e                  FIELDS
                    0xb052                  lfa_UPDATE
                    0xb05c                  UPDATE
                    0xb084                  lfa_NOUPDATE
                    0xb090                  NOUPDATE
                    0xb0a0                  lfa_DATAOUT
                    0xb0a8                  DATAOUT
                    0xb0d2                  lfa_INDATA
                    0xb0da                  INDATA
                    0xb0f8                  lfa_ASSIGN
                    0xb102                  ASSIGN
                    0xb14e                  lfa_BUFFER
                    0xb158                  BUFFER
                    0xb160                  lfa_BLOCK
                    0xb168                  BLOCK
                    0xb174                  lfa_LOAD
                    0xb17c                  LOAD
                    0xb188                  lfa_SAVEBUFFERS
                    0xb198                  SAVEBUFFERS
                    0xb1b0                  lfa_EMPTYBUFFERS
                    0xb1c0                  EMPTYBUFFERS
                    0xb1e8                  lfa_FLUSH
                    0xb1f0                  FLUSH
                    0xb1f8                  lfa_LIST
                    0xb200                  LIST
                    0xb254                  QAUTORUN
                    0xb268                  QCOLD
                    0xb274                  HARDWARE_INIT
                    0xb292                  TICKS_INIT
                    0xb294                  SET_CLOCK
                    0xb296                  CLR_LOW_RAM
                    0xb298                  CLR_RAM
                    0xb29a                  IO_LOCK
                    0xb29c                  VARS_INIT
                    0xb29e                  lfa_TICKS
                    0xb2a6                  TICKS
                    0xb2a8                  lfa_USEC
                    0xb2b0                  USEC
                    0xb2b2                  lfa_MS
                    0xb2b8                  MS
                    0xb2e2                  lfa_LFSR
                    0xb2ea                  LFSR
                    0xb2ec                  lfa_RAND
                    0xb2f4                  RAND
                    0xb2f6                  lfa_SRAND
                    0xb2fe                  SRAND
                    0xb300                  lfa_CLEAR
                    0xb308                  CLEAR
                    0xb31a                  lfa_UNUSED
                    0xb324                  UNUSED
                    0xb32e                  lfa_CRCENBL
                    0xb338                  CRCENBL
                    0xb33a                  lfa_QCRCFIFO
                    0xb346                  QCRCFIFO
                    0xb348                  lfa_CRCLE
                    0xb350                  CRCLE
                    0xb352                  lfa_CRCSTART
                    0xb35e                  CRCSTART
                    0xb360                  lfa_CRCDW
                    0xb368                  CRCDW
                    0xb36a                  lfa_CRCPL
                    0xb372                  CRCPL
                    0xb374                  lfa_CRCPOLY
                    0xb37e                  CRCPOLY
                    0xb380                  lfa_CRCFETCH
                    0xb388                  CRCFETCH
                    0xb38a                  lfa_CRCDFETCH
                    0xb392                  CRCDFETCH
                    0xb394                  lfa_CRC0
                    0xb39c                  CRC0
                    0xb39e                  lfa_CRCCSTORE
                    0xb3a6                  CRCCSTORE
                    0xb3a8                  lfa_CRCSTORE
                    0xb3b0                  CRCSTORE
                    0xb3b2                  lfa_CRCDSTORE
                    0xb3ba                  CRCDSTORE
                    0xb3bc                  lfa_CRCDONE
                    0xb3c6                  CRCDONE
                    0xb3c8                  lfa_CRC16
                    0xb3d0                  CRC16
                    0xb3f6                  lfa_CRC7
                    0xb3fe                  CRC7

__FICD            0x0557f0          0x2
 *(__FICD.sec*)
 __FICD.sec       0x0557f0          0x2 build/default/production/mcu_config_bits.o

__FPOR            0x0557f2          0x2
 *(__FPOR.sec*)
 __FPOR.sec       0x0557f2          0x2 build/default/production/mcu_config_bits.o

__FWDT            0x0557f4          0x2
 *(__FWDT.sec*)
 __FWDT.sec       0x0557f4          0x2 build/default/production/mcu_config_bits.o

__FOSC            0x0557f6          0x2
 *(__FOSC.sec*)
 __FOSC.sec       0x0557f6          0x2 build/default/production/mcu_config_bits.o

__FOSCSEL         0x0557f8          0x2
 *(__FOSCSEL.sec*)
 __FOSCSEL.sec    0x0557f8          0x2 build/default/production/mcu_config_bits.o

__FGS             0x0557fa          0x2
 *(__FGS.sec*)
 __FGS.sec        0x0557fa          0x2 FGS
                  0x0557fa                  __FGS.sec

__FUID0
 *(__FUID0.sec*)

__FUID1
 *(__FUID1.sec*)

__FUID2
 *(__FUID2.sec*)

__FUID3
 *(__FUID3.sec*)

.comment
 *(.comment)

.debug_info       0x000000         0x75
 *(.debug_info)
 .debug_info      0x000000         0x75 build/default/production/forthex.o
 *(.gnu.linkonce.wi.*)

.debug_abbrev     0x000000         0x10
 *(.debug_abbrev)
 .debug_abbrev    0x000000         0x10 build/default/production/forthex.o

.debug_line       0x000000        0xa60
 *(.debug_line)
 .debug_line      0x000000         0x1a build/default/production/font.o
 .debug_line      0x00001a         0x1a build/default/production/mcu_config_bits.o
 .debug_line      0x000034        0xa2c build/default/production/forthex.o

.debug_frame
 *(.debug_frame)

.debug_str
 *(.debug_str)

.debug_loc
 *(.debug_loc)

.debug_macinfo
 *(.debug_macinfo)

.debug_pubnames
 *(.debug_pubnames)

.debug_ranges
 *(.debug_ranges)

.debug_aranges    0x000000         0x30
 *(.debug_aranges)
 .debug_aranges
                  0x000000         0x30 build/default/production/forthex.o
                    0x0000                  WREG0 = 0x0
                    0x0000                  _WREG0 = 0x0
                    0x0002                  WREG1 = 0x2
                    0x0002                  _WREG1 = 0x2
                    0x0004                  WREG2 = 0x4
                    0x0004                  _WREG2 = 0x4
                    0x0006                  WREG3 = 0x6
                    0x0006                  _WREG3 = 0x6
                    0x0008                  WREG4 = 0x8
                    0x0008                  _WREG4 = 0x8
                    0x000a                  WREG5 = 0xa
                    0x000a                  _WREG5 = 0xa
                    0x000c                  WREG6 = 0xc
                    0x000c                  _WREG6 = 0xc
                    0x000e                  WREG7 = 0xe
                    0x000e                  _WREG7 = 0xe
                    0x0010                  WREG8 = 0x10
                    0x0010                  _WREG8 = 0x10
                    0x0012                  WREG9 = 0x12
                    0x0012                  _WREG9 = 0x12
                    0x0014                  WREG10 = 0x14
                    0x0014                  _WREG10 = 0x14
                    0x0016                  WREG11 = 0x16
                    0x0016                  _WREG11 = 0x16
                    0x0018                  WREG12 = 0x18
                    0x0018                  _WREG12 = 0x18
                    0x001a                  WREG13 = 0x1a
                    0x001a                  _WREG13 = 0x1a
                    0x001c                  WREG14 = 0x1c
                    0x001c                  _WREG14 = 0x1c
                    0x001e                  WREG15 = 0x1e
                    0x001e                  _WREG15 = 0x1e
                    0x0020                  SPLIM = 0x20
                    0x0020                  _SPLIM = 0x20
                    0x002e                  PCL = 0x2e
                    0x002e                  _PCL = 0x2e
                    0x0030                  PCH = 0x30
                    0x0030                  _PCH = 0x30
                    0x0032                  DSRPAG = 0x32
                    0x0032                  _DSRPAG = 0x32
                    0x0032                  _DSRPAGbits = 0x32
                    0x0034                  DSWPAG = 0x34
                    0x0034                  _DSWPAG = 0x34
                    0x0034                  _DSWPAGbits = 0x34
                    0x0036                  RCOUNT = 0x36
                    0x0036                  _RCOUNT = 0x36
                    0x0042                  SR = 0x42
                    0x0042                  _SR = 0x42
                    0x0042                  _SRbits = 0x42
                    0x0044                  CORCON = 0x44
                    0x0044                  _CORCON = 0x44
                    0x0044                  _CORCONbits = 0x44
                    0x0052                  DISICNT = 0x52
                    0x0052                  _DISICNT = 0x52
                    0x0054                  TBLPAG = 0x54
                    0x0054                  _TBLPAG = 0x54
                    0x0054                  _TBLPAGbits = 0x54
                    0x0058                  MSTRPR = 0x58
                    0x0058                  _MSTRPR = 0x58
                    0x0100                  TMR1 = 0x100
                    0x0100                  _TMR1 = 0x100
                    0x0102                  PR1 = 0x102
                    0x0102                  _PR1 = 0x102
                    0x0104                  T1CON = 0x104
                    0x0104                  _T1CON = 0x104
                    0x0104                  _T1CONbits = 0x104
                    0x0106                  TMR2 = 0x106
                    0x0106                  _TMR2 = 0x106
                    0x0108                  TMR3HLD = 0x108
                    0x0108                  _TMR3HLD = 0x108
                    0x010a                  TMR3 = 0x10a
                    0x010a                  _TMR3 = 0x10a
                    0x010c                  PR2 = 0x10c
                    0x010c                  _PR2 = 0x10c
                    0x010e                  PR3 = 0x10e
                    0x010e                  _PR3 = 0x10e
                    0x0110                  T2CON = 0x110
                    0x0110                  _T2CON = 0x110
                    0x0110                  _T2CONbits = 0x110
                    0x0112                  T3CON = 0x112
                    0x0112                  _T3CON = 0x112
                    0x0112                  _T3CONbits = 0x112
                    0x0114                  TMR4 = 0x114
                    0x0114                  _TMR4 = 0x114
                    0x0116                  TMR5HLD = 0x116
                    0x0116                  _TMR5HLD = 0x116
                    0x0118                  TMR5 = 0x118
                    0x0118                  _TMR5 = 0x118
                    0x011a                  PR4 = 0x11a
                    0x011a                  _PR4 = 0x11a
                    0x011c                  PR5 = 0x11c
                    0x011c                  _PR5 = 0x11c
                    0x011e                  T4CON = 0x11e
                    0x011e                  _T4CON = 0x11e
                    0x011e                  _T4CONbits = 0x11e
                    0x0120                  T5CON = 0x120
                    0x0120                  _T5CON = 0x120
                    0x0120                  _T5CONbits = 0x120
                    0x0140                  IC1CON1 = 0x140
                    0x0140                  _IC1CON1 = 0x140
                    0x0140                  _IC1CON1bits = 0x140
                    0x0142                  IC1CON2 = 0x142
                    0x0142                  _IC1CON2 = 0x142
                    0x0142                  _IC1CON2bits = 0x142
                    0x0144                  IC1BUF = 0x144
                    0x0144                  _IC1BUF = 0x144
                    0x0146                  IC1TMR = 0x146
                    0x0146                  _IC1TMR = 0x146
                    0x0148                  IC2CON1 = 0x148
                    0x0148                  _IC2CON1 = 0x148
                    0x0148                  _IC2CON1bits = 0x148
                    0x014a                  IC2CON2 = 0x14a
                    0x014a                  _IC2CON2 = 0x14a
                    0x014a                  _IC2CON2bits = 0x14a
                    0x014c                  IC2BUF = 0x14c
                    0x014c                  _IC2BUF = 0x14c
                    0x014e                  IC2TMR = 0x14e
                    0x014e                  _IC2TMR = 0x14e
                    0x0150                  IC3CON1 = 0x150
                    0x0150                  _IC3CON1 = 0x150
                    0x0150                  _IC3CON1bits = 0x150
                    0x0152                  IC3CON2 = 0x152
                    0x0152                  _IC3CON2 = 0x152
                    0x0152                  _IC3CON2bits = 0x152
                    0x0154                  IC3BUF = 0x154
                    0x0154                  _IC3BUF = 0x154
                    0x0156                  IC3TMR = 0x156
                    0x0156                  _IC3TMR = 0x156
                    0x0158                  IC4CON1 = 0x158
                    0x0158                  _IC4CON1 = 0x158
                    0x0158                  _IC4CON1bits = 0x158
                    0x015a                  IC4CON2 = 0x15a
                    0x015a                  _IC4CON2 = 0x15a
                    0x015a                  _IC4CON2bits = 0x15a
                    0x015c                  IC4BUF = 0x15c
                    0x015c                  _IC4BUF = 0x15c
                    0x015e                  IC4TMR = 0x15e
                    0x015e                  _IC4TMR = 0x15e
                    0x0200                  I2C1RCV = 0x200
                    0x0200                  _I2C1RCV = 0x200
                    0x0202                  I2C1TRN = 0x202
                    0x0202                  _I2C1TRN = 0x202
                    0x0204                  I2C1BRG = 0x204
                    0x0204                  _I2C1BRG = 0x204
                    0x0206                  I2C1CON = 0x206
                    0x0206                  _I2C1CON = 0x206
                    0x0206                  _I2C1CONbits = 0x206
                    0x0208                  I2C1STAT = 0x208
                    0x0208                  _I2C1STAT = 0x208
                    0x0208                  _I2C1STATbits = 0x208
                    0x020a                  I2C1ADD = 0x20a
                    0x020a                  _I2C1ADD = 0x20a
                    0x020c                  I2C1MSK = 0x20c
                    0x020c                  _I2C1MSK = 0x20c
                    0x0210                  I2C2RCV = 0x210
                    0x0210                  _I2C2RCV = 0x210
                    0x0212                  I2C2TRN = 0x212
                    0x0212                  _I2C2TRN = 0x212
                    0x0214                  I2C2BRG = 0x214
                    0x0214                  _I2C2BRG = 0x214
                    0x0216                  I2C2CON = 0x216
                    0x0216                  _I2C2CON = 0x216
                    0x0216                  _I2C2CONbits = 0x216
                    0x0218                  I2C2STAT = 0x218
                    0x0218                  _I2C2STAT = 0x218
                    0x0218                  _I2C2STATbits = 0x218
                    0x021a                  I2C2ADD = 0x21a
                    0x021a                  _I2C2ADD = 0x21a
                    0x021c                  I2C2MSK = 0x21c
                    0x021c                  _I2C2MSK = 0x21c
                    0x0220                  U1MODE = 0x220
                    0x0220                  _U1MODE = 0x220
                    0x0220                  _U1MODEbits = 0x220
                    0x0222                  U1STA = 0x222
                    0x0222                  _U1STA = 0x222
                    0x0222                  _U1STAbits = 0x222
                    0x0224                  U1TXREG = 0x224
                    0x0224                  _U1TXREG = 0x224
                    0x0226                  U1RXREG = 0x226
                    0x0226                  _U1RXREG = 0x226
                    0x0228                  U1BRG = 0x228
                    0x0228                  _U1BRG = 0x228
                    0x0230                  U2MODE = 0x230
                    0x0230                  _U2MODE = 0x230
                    0x0230                  _U2MODEbits = 0x230
                    0x0232                  U2STA = 0x232
                    0x0232                  _U2STA = 0x232
                    0x0232                  _U2STAbits = 0x232
                    0x0234                  U2TXREG = 0x234
                    0x0234                  _U2TXREG = 0x234
                    0x0236                  U2RXREG = 0x236
                    0x0236                  _U2RXREG = 0x236
                    0x0238                  U2BRG = 0x238
                    0x0238                  _U2BRG = 0x238
                    0x0240                  SPI1STAT = 0x240
                    0x0240                  _SPI1STAT = 0x240
                    0x0240                  _SPI1STATbits = 0x240
                    0x0242                  SPI1CON1 = 0x242
                    0x0242                  _SPI1CON1 = 0x242
                    0x0242                  _SPI1CON1bits = 0x242
                    0x0244                  SPI1CON2 = 0x244
                    0x0244                  _SPI1CON2 = 0x244
                    0x0244                  _SPI1CON2bits = 0x244
                    0x0248                  SPI1BUF = 0x248
                    0x0248                  _SPI1BUF = 0x248
                    0x0260                  SPI2STAT = 0x260
                    0x0260                  _SPI2STAT = 0x260
                    0x0260                  _SPI2STATbits = 0x260
                    0x0262                  SPI2CON1 = 0x262
                    0x0262                  _SPI2CON1 = 0x262
                    0x0262                  _SPI2CON1bits = 0x262
                    0x0264                  SPI2CON2 = 0x264
                    0x0264                  _SPI2CON2 = 0x264
                    0x0264                  _SPI2CON2bits = 0x264
                    0x0268                  SPI2BUF = 0x268
                    0x0268                  _SPI2BUF = 0x268
                    0x0300                  ADC1BUF0 = 0x300
                    0x0300                  _ADC1BUF0 = 0x300
                    0x0302                  ADC1BUF1 = 0x302
                    0x0302                  _ADC1BUF1 = 0x302
                    0x0304                  ADC1BUF2 = 0x304
                    0x0304                  _ADC1BUF2 = 0x304
                    0x0306                  ADC1BUF3 = 0x306
                    0x0306                  _ADC1BUF3 = 0x306
                    0x0308                  ADC1BUF4 = 0x308
                    0x0308                  _ADC1BUF4 = 0x308
                    0x030a                  ADC1BUF5 = 0x30a
                    0x030a                  _ADC1BUF5 = 0x30a
                    0x030c                  ADC1BUF6 = 0x30c
                    0x030c                  _ADC1BUF6 = 0x30c
                    0x030e                  ADC1BUF7 = 0x30e
                    0x030e                  _ADC1BUF7 = 0x30e
                    0x0310                  ADC1BUF8 = 0x310
                    0x0310                  _ADC1BUF8 = 0x310
                    0x0312                  ADC1BUF9 = 0x312
                    0x0312                  _ADC1BUF9 = 0x312
                    0x0314                  ADC1BUFA = 0x314
                    0x0314                  _ADC1BUFA = 0x314
                    0x0316                  ADC1BUFB = 0x316
                    0x0316                  _ADC1BUFB = 0x316
                    0x0318                  ADC1BUFC = 0x318
                    0x0318                  _ADC1BUFC = 0x318
                    0x031a                  ADC1BUFD = 0x31a
                    0x031a                  _ADC1BUFD = 0x31a
                    0x031c                  ADC1BUFE = 0x31c
                    0x031c                  _ADC1BUFE = 0x31c
                    0x031e                  ADC1BUFF = 0x31e
                    0x031e                  _ADC1BUFF = 0x31e
                    0x0320                  AD1CON1 = 0x320
                    0x0320                  _AD1CON1 = 0x320
                    0x0320                  _AD1CON1bits = 0x320
                    0x0322                  AD1CON2 = 0x322
                    0x0322                  _AD1CON2 = 0x322
                    0x0322                  _AD1CON2bits = 0x322
                    0x0324                  AD1CON3 = 0x324
                    0x0324                  _AD1CON3 = 0x324
                    0x0324                  _AD1CON3bits = 0x324
                    0x0326                  AD1CHS123 = 0x326
                    0x0326                  _AD1CHS123 = 0x326
                    0x0326                  _AD1CHS123bits = 0x326
                    0x0328                  AD1CHS0 = 0x328
                    0x0328                  _AD1CHS0 = 0x328
                    0x0328                  _AD1CHS0bits = 0x328
                    0x032e                  AD1CSSH = 0x32e
                    0x032e                  _AD1CSSH = 0x32e
                    0x032e                  _AD1CSSHbits = 0x32e
                    0x0330                  AD1CSSL = 0x330
                    0x0330                  _AD1CSSL = 0x330
                    0x0330                  _AD1CSSLbits = 0x330
                    0x0332                  AD1CON4 = 0x332
                    0x0332                  _AD1CON4 = 0x332
                    0x0332                  _AD1CON4bits = 0x332
                    0x033a                  CTMUCON1 = 0x33a
                    0x033a                  _CTMUCON1 = 0x33a
                    0x033a                  _CTMUCON1bits = 0x33a
                    0x033c                  CTMUCON2 = 0x33c
                    0x033c                  _CTMUCON2 = 0x33c
                    0x033c                  _CTMUCON2bits = 0x33c
                    0x033e                  CTMUICON = 0x33e
                    0x033e                  _CTMUICON = 0x33e
                    0x033e                  _CTMUICONbits = 0x33e
                    0x0640                  CRCCON1 = 0x640
                    0x0640                  _CRCCON1 = 0x640
                    0x0640                  _CRCCON1bits = 0x640
                    0x0642                  CRCCON2 = 0x642
                    0x0642                  _CRCCON2 = 0x642
                    0x0642                  _CRCCON2bits = 0x642
                    0x0644                  CRCXORL = 0x644
                    0x0644                  _CRCXORL = 0x644
                    0x0644                  _CRCXORLbits = 0x644
                    0x0646                  CRCXORH = 0x646
                    0x0646                  _CRCXORH = 0x646
                    0x0646                  _CRCXORHbits = 0x646
                    0x0648                  CRCDAT = 0x648
                    0x0648                  _CRCDAT = 0x648
                    0x0648                  CRCDATL = 0x648
                    0x0648                  _CRCDATL = 0x648
                    0x064a                  CRCDATH = 0x64a
                    0x064a                  _CRCDATH = 0x64a
                    0x064c                  CRCWDAT = 0x64c
                    0x064c                  _CRCWDAT = 0x64c
                    0x064c                  CRCWDATL = 0x64c
                    0x064c                  _CRCWDATL = 0x64c
                    0x064e                  CRCWDATH = 0x64e
                    0x064e                  _CRCWDATH = 0x64e
                    0x0680                  RPOR0 = 0x680
                    0x0680                  _RPOR0 = 0x680
                    0x0680                  _RPOR0bits = 0x680
                    0x0682                  RPOR1 = 0x682
                    0x0682                  _RPOR1 = 0x682
                    0x0682                  _RPOR1bits = 0x682
                    0x0684                  RPOR2 = 0x684
                    0x0684                  _RPOR2 = 0x684
                    0x0684                  _RPOR2bits = 0x684
                    0x0686                  RPOR3 = 0x686
                    0x0686                  _RPOR3 = 0x686
                    0x0686                  _RPOR3bits = 0x686
                    0x0688                  RPOR4 = 0x688
                    0x0688                  _RPOR4 = 0x688
                    0x0688                  _RPOR4bits = 0x688
                    0x06a0                  RPINR0 = 0x6a0
                    0x06a0                  _RPINR0 = 0x6a0
                    0x06a0                  _RPINR0bits = 0x6a0
                    0x06a2                  RPINR1 = 0x6a2
                    0x06a2                  _RPINR1 = 0x6a2
                    0x06a2                  _RPINR1bits = 0x6a2
                    0x06a6                  RPINR3 = 0x6a6
                    0x06a6                  _RPINR3 = 0x6a6
                    0x06a6                  _RPINR3bits = 0x6a6
                    0x06ae                  RPINR7 = 0x6ae
                    0x06ae                  _RPINR7 = 0x6ae
                    0x06ae                  _RPINR7bits = 0x6ae
                    0x06b0                  RPINR8 = 0x6b0
                    0x06b0                  _RPINR8 = 0x6b0
                    0x06b0                  _RPINR8bits = 0x6b0
                    0x06b6                  RPINR11 = 0x6b6
                    0x06b6                  _RPINR11 = 0x6b6
                    0x06b6                  _RPINR11bits = 0x6b6
                    0x06c4                  RPINR18 = 0x6c4
                    0x06c4                  _RPINR18 = 0x6c4
                    0x06c4                  _RPINR18bits = 0x6c4
                    0x06c6                  RPINR19 = 0x6c6
                    0x06c6                  _RPINR19 = 0x6c6
                    0x06c6                  _RPINR19bits = 0x6c6
                    0x06cc                  RPINR22 = 0x6cc
                    0x06cc                  _RPINR22 = 0x6cc
                    0x06cc                  _RPINR22bits = 0x6cc
                    0x06ce                  RPINR23 = 0x6ce
                    0x06ce                  _RPINR23 = 0x6ce
                    0x06ce                  _RPINR23bits = 0x6ce
                    0x0728                  NVMCON = 0x728
                    0x0728                  _NVMCON = 0x728
                    0x0728                  _NVMCONbits = 0x728
                    0x072a                  NVMADR = 0x72a
                    0x072a                  _NVMADR = 0x72a
                    0x072c                  NVMADRU = 0x72c
                    0x072c                  _NVMADRU = 0x72c
                    0x072c                  _NVMADRUbits = 0x72c
                    0x072e                  NVMKEY = 0x72e
                    0x072e                  _NVMKEY = 0x72e
                    0x0740                  RCON = 0x740
                    0x0740                  _RCON = 0x740
                    0x0740                  _RCONbits = 0x740
                    0x0742                  OSCCON = 0x742
                    0x0742                  _OSCCON = 0x742
                    0x0742                  _OSCCONbits = 0x742
                    0x0742                  OSCCONL = 0x742
                    0x0742                  _OSCCONL = 0x742
                    0x0743                  OSCCONH = 0x743
                    0x0743                  _OSCCONH = 0x743
                    0x0744                  CLKDIV = 0x744
                    0x0744                  _CLKDIV = 0x744
                    0x0744                  _CLKDIVbits = 0x744
                    0x0746                  PLLFBD = 0x746
                    0x0746                  _PLLFBD = 0x746
                    0x0746                  _PLLFBDbits = 0x746
                    0x0748                  OSCTUN = 0x748
                    0x0748                  _OSCTUN = 0x748
                    0x0748                  _OSCTUNbits = 0x748
                    0x074e                  REFOCON = 0x74e
                    0x074e                  _REFOCON = 0x74e
                    0x074e                  _REFOCONbits = 0x74e
                    0x0760                  PMD1 = 0x760
                    0x0760                  _PMD1 = 0x760
                    0x0760                  _PMD1bits = 0x760
                    0x0762                  PMD2 = 0x762
                    0x0762                  _PMD2 = 0x762
                    0x0762                  _PMD2bits = 0x762
                    0x0764                  PMD3 = 0x764
                    0x0764                  _PMD3 = 0x764
                    0x0764                  _PMD3bits = 0x764
                    0x0766                  PMD4 = 0x766
                    0x0766                  _PMD4 = 0x766
                    0x0766                  _PMD4bits = 0x766
                    0x076a                  PMD6 = 0x76a
                    0x076a                  _PMD6 = 0x76a
                    0x076c                  PMD7 = 0x76c
                    0x076c                  _PMD7 = 0x76c
                    0x076c                  _PMD7bits = 0x76c
                    0x0800                  IFS0 = 0x800
                    0x0800                  _IFS0 = 0x800
                    0x0800                  _IFS0bits = 0x800
                    0x0802                  IFS1 = 0x802
                    0x0802                  _IFS1 = 0x802
                    0x0802                  _IFS1bits = 0x802
                    0x0804                  IFS2 = 0x804
                    0x0804                  _IFS2 = 0x804
                    0x0804                  _IFS2bits = 0x804
                    0x0806                  IFS3 = 0x806
                    0x0806                  _IFS3 = 0x806
                    0x0806                  _IFS3bits = 0x806
                    0x0808                  IFS4 = 0x808
                    0x0808                  _IFS4 = 0x808
                    0x0808                  _IFS4bits = 0x808
                    0x0810                  IFS8 = 0x810
                    0x0810                  _IFS8 = 0x810
                    0x0810                  _IFS8bits = 0x810
                    0x0812                  IFS9 = 0x812
                    0x0812                  _IFS9 = 0x812
                    0x0812                  _IFS9bits = 0x812
                    0x0820                  IEC0 = 0x820
                    0x0820                  _IEC0 = 0x820
                    0x0820                  _IEC0bits = 0x820
                    0x0822                  IEC1 = 0x822
                    0x0822                  _IEC1 = 0x822
                    0x0822                  _IEC1bits = 0x822
                    0x0824                  IEC2 = 0x824
                    0x0824                  _IEC2 = 0x824
                    0x0824                  _IEC2bits = 0x824
                    0x0826                  IEC3 = 0x826
                    0x0826                  _IEC3 = 0x826
                    0x0826                  _IEC3bits = 0x826
                    0x0828                  IEC4 = 0x828
                    0x0828                  _IEC4 = 0x828
                    0x0828                  _IEC4bits = 0x828
                    0x0830                  IEC8 = 0x830
                    0x0830                  _IEC8 = 0x830
                    0x0830                  _IEC8bits = 0x830
                    0x0832                  IEC9 = 0x832
                    0x0832                  _IEC9 = 0x832
                    0x0832                  _IEC9bits = 0x832
                    0x0840                  IPC0 = 0x840
                    0x0840                  _IPC0 = 0x840
                    0x0840                  _IPC0bits = 0x840
                    0x0842                  IPC1 = 0x842
                    0x0842                  _IPC1 = 0x842
                    0x0842                  _IPC1bits = 0x842
                    0x0844                  IPC2 = 0x844
                    0x0844                  _IPC2 = 0x844
                    0x0844                  _IPC2bits = 0x844
                    0x0846                  IPC3 = 0x846
                    0x0846                  _IPC3 = 0x846
                    0x0846                  _IPC3bits = 0x846
                    0x0848                  IPC4 = 0x848
                    0x0848                  _IPC4 = 0x848
                    0x0848                  _IPC4bits = 0x848
                    0x084a                  IPC5 = 0x84a
                    0x084a                  _IPC5 = 0x84a
                    0x084a                  _IPC5bits = 0x84a
                    0x084c                  IPC6 = 0x84c
                    0x084c                  _IPC6 = 0x84c
                    0x084c                  _IPC6bits = 0x84c
                    0x084e                  IPC7 = 0x84e
                    0x084e                  _IPC7 = 0x84e
                    0x084e                  _IPC7bits = 0x84e
                    0x0850                  IPC8 = 0x850
                    0x0850                  _IPC8 = 0x850
                    0x0850                  _IPC8bits = 0x850
                    0x0852                  IPC9 = 0x852
                    0x0852                  _IPC9 = 0x852
                    0x0852                  _IPC9bits = 0x852
                    0x0858                  IPC12 = 0x858
                    0x0858                  _IPC12 = 0x858
                    0x0858                  _IPC12bits = 0x858
                    0x0860                  IPC16 = 0x860
                    0x0860                  _IPC16 = 0x860
                    0x0860                  _IPC16bits = 0x860
                    0x0866                  IPC19 = 0x866
                    0x0866                  _IPC19 = 0x866
                    0x0866                  _IPC19bits = 0x866
                    0x0886                  IPC35 = 0x886
                    0x0886                  _IPC35 = 0x886
                    0x0886                  _IPC35bits = 0x886
                    0x0888                  IPC36 = 0x888
                    0x0888                  _IPC36 = 0x888
                    0x0888                  _IPC36bits = 0x888
                    0x088a                  IPC37 = 0x88a
                    0x088a                  _IPC37 = 0x88a
                    0x088a                  _IPC37bits = 0x88a
                    0x08c0                  INTCON1 = 0x8c0
                    0x08c0                  _INTCON1 = 0x8c0
                    0x08c0                  _INTCON1bits = 0x8c0
                    0x08c2                  INTCON2 = 0x8c2
                    0x08c2                  _INTCON2 = 0x8c2
                    0x08c2                  _INTCON2bits = 0x8c2
                    0x08c4                  INTCON3 = 0x8c4
                    0x08c4                  _INTCON3 = 0x8c4
                    0x08c4                  _INTCON3bits = 0x8c4
                    0x08c6                  INTCON4 = 0x8c6
                    0x08c6                  _INTCON4 = 0x8c6
                    0x08c6                  _INTCON4bits = 0x8c6
                    0x08c8                  INTTREG = 0x8c8
                    0x08c8                  _INTTREG = 0x8c8
                    0x08c8                  _INTTREGbits = 0x8c8
                    0x0900                  OC1CON1 = 0x900
                    0x0900                  _OC1CON1 = 0x900
                    0x0900                  _OC1CON1bits = 0x900
                    0x0902                  OC1CON2 = 0x902
                    0x0902                  _OC1CON2 = 0x902
                    0x0902                  _OC1CON2bits = 0x902
                    0x0904                  OC1RS = 0x904
                    0x0904                  _OC1RS = 0x904
                    0x0906                  OC1R = 0x906
                    0x0906                  _OC1R = 0x906
                    0x0908                  OC1TMR = 0x908
                    0x0908                  _OC1TMR = 0x908
                    0x090a                  OC2CON1 = 0x90a
                    0x090a                  _OC2CON1 = 0x90a
                    0x090a                  _OC2CON1bits = 0x90a
                    0x090c                  OC2CON2 = 0x90c
                    0x090c                  _OC2CON2 = 0x90c
                    0x090c                  _OC2CON2bits = 0x90c
                    0x090e                  OC2RS = 0x90e
                    0x090e                  _OC2RS = 0x90e
                    0x0910                  OC2R = 0x910
                    0x0910                  _OC2R = 0x910
                    0x0912                  OC2TMR = 0x912
                    0x0912                  _OC2TMR = 0x912
                    0x0914                  OC3CON1 = 0x914
                    0x0914                  _OC3CON1 = 0x914
                    0x0914                  _OC3CON1bits = 0x914
                    0x0916                  OC3CON2 = 0x916
                    0x0916                  _OC3CON2 = 0x916
                    0x0916                  _OC3CON2bits = 0x916
                    0x0918                  OC3RS = 0x918
                    0x0918                  _OC3RS = 0x918
                    0x091a                  OC3R = 0x91a
                    0x091a                  _OC3R = 0x91a
                    0x091c                  OC3TMR = 0x91c
                    0x091c                  _OC3TMR = 0x91c
                    0x091e                  OC4CON1 = 0x91e
                    0x091e                  _OC4CON1 = 0x91e
                    0x091e                  _OC4CON1bits = 0x91e
                    0x0920                  OC4CON2 = 0x920
                    0x0920                  _OC4CON2 = 0x920
                    0x0920                  _OC4CON2bits = 0x920
                    0x0922                  OC4RS = 0x922
                    0x0922                  _OC4RS = 0x922
                    0x0924                  OC4R = 0x924
                    0x0924                  _OC4R = 0x924
                    0x0926                  OC4TMR = 0x926
                    0x0926                  _OC4TMR = 0x926
                    0x0a80                  CMSTAT = 0xa80
                    0x0a80                  _CMSTAT = 0xa80
                    0x0a80                  _CMSTATbits = 0xa80
                    0x0a82                  CVRCON = 0xa82
                    0x0a82                  _CVRCON = 0xa82
                    0x0a82                  _CVRCONbits = 0xa82
                    0x0a84                  CM1CON = 0xa84
                    0x0a84                  _CM1CON = 0xa84
                    0x0a84                  _CM1CONbits = 0xa84
                    0x0a86                  CM1MSKSRC = 0xa86
                    0x0a86                  _CM1MSKSRC = 0xa86
                    0x0a86                  _CM1MSKSRCbits = 0xa86
                    0x0a88                  CM1MSKCON = 0xa88
                    0x0a88                  _CM1MSKCON = 0xa88
                    0x0a88                  _CM1MSKCONbits = 0xa88
                    0x0a8a                  CM1FLTR = 0xa8a
                    0x0a8a                  _CM1FLTR = 0xa8a
                    0x0a8a                  _CM1FLTRbits = 0xa8a
                    0x0a8c                  CM2CON = 0xa8c
                    0x0a8c                  _CM2CON = 0xa8c
                    0x0a8c                  _CM2CONbits = 0xa8c
                    0x0a8e                  CM2MSKSRC = 0xa8e
                    0x0a8e                  _CM2MSKSRC = 0xa8e
                    0x0a8e                  _CM2MSKSRCbits = 0xa8e
                    0x0a90                  CM2MSKCON = 0xa90
                    0x0a90                  _CM2MSKCON = 0xa90
                    0x0a90                  _CM2MSKCONbits = 0xa90
                    0x0a92                  CM2FLTR = 0xa92
                    0x0a92                  _CM2FLTR = 0xa92
                    0x0a92                  _CM2FLTRbits = 0xa92
                    0x0a94                  CM3CON = 0xa94
                    0x0a94                  _CM3CON = 0xa94
                    0x0a94                  _CM3CONbits = 0xa94
                    0x0a96                  CM3MSKSRC = 0xa96
                    0x0a96                  _CM3MSKSRC = 0xa96
                    0x0a96                  _CM3MSKSRCbits = 0xa96
                    0x0a98                  CM3MSKCON = 0xa98
                    0x0a98                  _CM3MSKCON = 0xa98
                    0x0a98                  _CM3MSKCONbits = 0xa98
                    0x0a9a                  CM3FLTR = 0xa9a
                    0x0a9a                  _CM3FLTR = 0xa9a
                    0x0a9a                  _CM3FLTRbits = 0xa9a
                    0x0a9c                  CM4CON = 0xa9c
                    0x0a9c                  _CM4CON = 0xa9c
                    0x0a9c                  _CM4CONbits = 0xa9c
                    0x0a9e                  CM4MSKSRC = 0xa9e
                    0x0a9e                  _CM4MSKSRC = 0xa9e
                    0x0a9e                  _CM4MSKSRCbits = 0xa9e
                    0x0aa0                  CM4MSKCON = 0xaa0
                    0x0aa0                  _CM4MSKCON = 0xaa0
                    0x0aa0                  _CM4MSKCONbits = 0xaa0
                    0x0aa2                  CM4FLTR = 0xaa2
                    0x0aa2                  _CM4FLTR = 0xaa2
                    0x0aa2                  _CM4FLTRbits = 0xaa2
                    0x0ac0                  PTGCST = 0xac0
                    0x0ac0                  _PTGCST = 0xac0
                    0x0ac0                  _PTGCSTbits = 0xac0
                    0x0ac2                  PTGCON = 0xac2
                    0x0ac2                  _PTGCON = 0xac2
                    0x0ac2                  _PTGCONbits = 0xac2
                    0x0ac4                  PTGBTE = 0xac4
                    0x0ac4                  _PTGBTE = 0xac4
                    0x0ac4                  _PTGBTEbits = 0xac4
                    0x0ac6                  PTGHOLD = 0xac6
                    0x0ac6                  _PTGHOLD = 0xac6
                    0x0ac8                  PTGT0LIM = 0xac8
                    0x0ac8                  _PTGT0LIM = 0xac8
                    0x0aca                  PTGT1LIM = 0xaca
                    0x0aca                  _PTGT1LIM = 0xaca
                    0x0acc                  PTGSDLIM = 0xacc
                    0x0acc                  _PTGSDLIM = 0xacc
                    0x0ace                  PTGC0LIM = 0xace
                    0x0ace                  _PTGC0LIM = 0xace
                    0x0ad0                  PTGC1LIM = 0xad0
                    0x0ad0                  _PTGC1LIM = 0xad0
                    0x0ad2                  PTGADJ = 0xad2
                    0x0ad2                  _PTGADJ = 0xad2
                    0x0ad4                  PTGL0 = 0xad4
                    0x0ad4                  _PTGL0 = 0xad4
                    0x0ad6                  PTGQPTR = 0xad6
                    0x0ad6                  _PTGQPTR = 0xad6
                    0x0ad6                  _PTGQPTRbits = 0xad6
                    0x0ad8                  PTGQUE0 = 0xad8
                    0x0ad8                  _PTGQUE0 = 0xad8
                    0x0ad8                  _PTGQUE0bits = 0xad8
                    0x0ada                  PTGQUE1 = 0xada
                    0x0ada                  _PTGQUE1 = 0xada
                    0x0ada                  _PTGQUE1bits = 0xada
                    0x0adc                  PTGQUE2 = 0xadc
                    0x0adc                  _PTGQUE2 = 0xadc
                    0x0adc                  _PTGQUE2bits = 0xadc
                    0x0ade                  PTGQUE3 = 0xade
                    0x0ade                  _PTGQUE3 = 0xade
                    0x0ade                  _PTGQUE3bits = 0xade
                    0x0ae0                  PTGQUE4 = 0xae0
                    0x0ae0                  _PTGQUE4 = 0xae0
                    0x0ae0                  _PTGQUE4bits = 0xae0
                    0x0ae2                  PTGQUE5 = 0xae2
                    0x0ae2                  _PTGQUE5 = 0xae2
                    0x0ae2                  _PTGQUE5bits = 0xae2
                    0x0ae4                  PTGQUE6 = 0xae4
                    0x0ae4                  _PTGQUE6 = 0xae4
                    0x0ae4                  _PTGQUE6bits = 0xae4
                    0x0ae6                  PTGQUE7 = 0xae6
                    0x0ae6                  _PTGQUE7 = 0xae6
                    0x0ae6                  _PTGQUE7bits = 0xae6
                    0x0b00                  DMA0CON = 0xb00
                    0x0b00                  _DMA0CON = 0xb00
                    0x0b00                  _DMA0CONbits = 0xb00
                    0x0b02                  DMA0REQ = 0xb02
                    0x0b02                  _DMA0REQ = 0xb02
                    0x0b02                  _DMA0REQbits = 0xb02
                    0x0b04                  DMA0STAL = 0xb04
                    0x0b04                  _DMA0STAL = 0xb04
                    0x0b06                  DMA0STAH = 0xb06
                    0x0b06                  _DMA0STAH = 0xb06
                    0x0b06                  _DMA0STAHbits = 0xb06
                    0x0b08                  DMA0STBL = 0xb08
                    0x0b08                  _DMA0STBL = 0xb08
                    0x0b0a                  DMA0STBH = 0xb0a
                    0x0b0a                  _DMA0STBH = 0xb0a
                    0x0b0a                  _DMA0STBHbits = 0xb0a
                    0x0b0c                  DMA0PAD = 0xb0c
                    0x0b0c                  _DMA0PAD = 0xb0c
                    0x0b0e                  DMA0CNT = 0xb0e
                    0x0b0e                  _DMA0CNT = 0xb0e
                    0x0b0e                  _DMA0CNTbits = 0xb0e
                    0x0b10                  DMA1CON = 0xb10
                    0x0b10                  _DMA1CON = 0xb10
                    0x0b10                  _DMA1CONbits = 0xb10
                    0x0b12                  DMA1REQ = 0xb12
                    0x0b12                  _DMA1REQ = 0xb12
                    0x0b12                  _DMA1REQbits = 0xb12
                    0x0b14                  DMA1STAL = 0xb14
                    0x0b14                  _DMA1STAL = 0xb14
                    0x0b16                  DMA1STAH = 0xb16
                    0x0b16                  _DMA1STAH = 0xb16
                    0x0b16                  _DMA1STAHbits = 0xb16
                    0x0b18                  DMA1STBL = 0xb18
                    0x0b18                  _DMA1STBL = 0xb18
                    0x0b1a                  DMA1STBH = 0xb1a
                    0x0b1a                  _DMA1STBH = 0xb1a
                    0x0b1a                  _DMA1STBHbits = 0xb1a
                    0x0b1c                  DMA1PAD = 0xb1c
                    0x0b1c                  _DMA1PAD = 0xb1c
                    0x0b1e                  DMA1CNT = 0xb1e
                    0x0b1e                  _DMA1CNT = 0xb1e
                    0x0b1e                  _DMA1CNTbits = 0xb1e
                    0x0b20                  DMA2CON = 0xb20
                    0x0b20                  _DMA2CON = 0xb20
                    0x0b20                  _DMA2CONbits = 0xb20
                    0x0b22                  DMA2REQ = 0xb22
                    0x0b22                  _DMA2REQ = 0xb22
                    0x0b22                  _DMA2REQbits = 0xb22
                    0x0b24                  DMA2STAL = 0xb24
                    0x0b24                  _DMA2STAL = 0xb24
                    0x0b26                  DMA2STAH = 0xb26
                    0x0b26                  _DMA2STAH = 0xb26
                    0x0b26                  _DMA2STAHbits = 0xb26
                    0x0b28                  DMA2STBL = 0xb28
                    0x0b28                  _DMA2STBL = 0xb28
                    0x0b2a                  DMA2STBH = 0xb2a
                    0x0b2a                  _DMA2STBH = 0xb2a
                    0x0b2a                  _DMA2STBHbits = 0xb2a
                    0x0b2c                  DMA2PAD = 0xb2c
                    0x0b2c                  _DMA2PAD = 0xb2c
                    0x0b2e                  DMA2CNT = 0xb2e
                    0x0b2e                  _DMA2CNT = 0xb2e
                    0x0b2e                  _DMA2CNTbits = 0xb2e
                    0x0b30                  DMA3CON = 0xb30
                    0x0b30                  _DMA3CON = 0xb30
                    0x0b30                  _DMA3CONbits = 0xb30
                    0x0b32                  DMA3REQ = 0xb32
                    0x0b32                  _DMA3REQ = 0xb32
                    0x0b32                  _DMA3REQbits = 0xb32
                    0x0b34                  DMA3STAL = 0xb34
                    0x0b34                  _DMA3STAL = 0xb34
                    0x0b36                  DMA3STAH = 0xb36
                    0x0b36                  _DMA3STAH = 0xb36
                    0x0b36                  _DMA3STAHbits = 0xb36
                    0x0b38                  DMA3STBL = 0xb38
                    0x0b38                  _DMA3STBL = 0xb38
                    0x0b3a                  DMA3STBH = 0xb3a
                    0x0b3a                  _DMA3STBH = 0xb3a
                    0x0b3a                  _DMA3STBHbits = 0xb3a
                    0x0b3c                  DMA3PAD = 0xb3c
                    0x0b3c                  _DMA3PAD = 0xb3c
                    0x0b3e                  DMA3CNT = 0xb3e
                    0x0b3e                  _DMA3CNT = 0xb3e
                    0x0b3e                  _DMA3CNTbits = 0xb3e
                    0x0bf0                  DMAPWC = 0xbf0
                    0x0bf0                  _DMAPWC = 0xbf0
                    0x0bf0                  _DMAPWCbits = 0xbf0
                    0x0bf2                  DMARQC = 0xbf2
                    0x0bf2                  _DMARQC = 0xbf2
                    0x0bf2                  _DMARQCbits = 0xbf2
                    0x0bf4                  DMAPPS = 0xbf4
                    0x0bf4                  _DMAPPS = 0xbf4
                    0x0bf4                  _DMAPPSbits = 0xbf4
                    0x0bf6                  DMALCA = 0xbf6
                    0x0bf6                  _DMALCA = 0xbf6
                    0x0bf6                  _DMALCAbits = 0xbf6
                    0x0bf8                  DSADRL = 0xbf8
                    0x0bf8                  _DSADRL = 0xbf8
                    0x0bfa                  DSADRH = 0xbfa
                    0x0bfa                  _DSADRH = 0xbfa
                    0x0bfa                  _DSADRHbits = 0xbfa
                    0x0e00                  TRISA = 0xe00
                    0x0e00                  _TRISA = 0xe00
                    0x0e00                  _TRISAbits = 0xe00
                    0x0e02                  PORTA = 0xe02
                    0x0e02                  _PORTA = 0xe02
                    0x0e02                  _PORTAbits = 0xe02
                    0x0e04                  LATA = 0xe04
                    0x0e04                  _LATA = 0xe04
                    0x0e04                  _LATAbits = 0xe04
                    0x0e06                  ODCA = 0xe06
                    0x0e06                  _ODCA = 0xe06
                    0x0e06                  _ODCAbits = 0xe06
                    0x0e08                  CNENA = 0xe08
                    0x0e08                  _CNENA = 0xe08
                    0x0e08                  _CNENAbits = 0xe08
                    0x0e0a                  CNPUA = 0xe0a
                    0x0e0a                  _CNPUA = 0xe0a
                    0x0e0a                  _CNPUAbits = 0xe0a
                    0x0e0c                  CNPDA = 0xe0c
                    0x0e0c                  _CNPDA = 0xe0c
                    0x0e0c                  _CNPDAbits = 0xe0c
                    0x0e0e                  ANSELA = 0xe0e
                    0x0e0e                  _ANSELA = 0xe0e
                    0x0e0e                  _ANSELAbits = 0xe0e
                    0x0e10                  TRISB = 0xe10
                    0x0e10                  _TRISB = 0xe10
                    0x0e10                  _TRISBbits = 0xe10
                    0x0e12                  PORTB = 0xe12
                    0x0e12                  _PORTB = 0xe12
                    0x0e12                  _PORTBbits = 0xe12
                    0x0e14                  LATB = 0xe14
                    0x0e14                  _LATB = 0xe14
                    0x0e14                  _LATBbits = 0xe14
                    0x0e16                  ODCB = 0xe16
                    0x0e16                  _ODCB = 0xe16
                    0x0e16                  _ODCBbits = 0xe16
                    0x0e18                  CNENB = 0xe18
                    0x0e18                  _CNENB = 0xe18
                    0x0e18                  _CNENBbits = 0xe18
                    0x0e1a                  CNPUB = 0xe1a
                    0x0e1a                  _CNPUB = 0xe1a
                    0x0e1a                  _CNPUBbits = 0xe1a
                    0x0e1c                  CNPDB = 0xe1c
                    0x0e1c                  _CNPDB = 0xe1c
                    0x0e1c                  _CNPDBbits = 0xe1c
                    0x0e1e                  ANSELB = 0xe1e
                    0x0e1e                  _ANSELB = 0xe1e
                    0x0e1e                  _ANSELBbits = 0xe1e
                    0x0fa0                  _APPO = 0xfa0
                    0x0fa0                  __APPO = 0xfa0
                    0x0fa2                  _APPIN = 0xfa2
                    0x0fa2                  __APPIN = 0xfa2
                    0x0fa4                  APPS = 0xfa4
                    0x0fa4                  _APPS = 0xfa4
                    0x0fa4                  _APPSbits = 0xfa4
                    0x0fa6                  STROUTL = 0xfa6
                    0x0fa6                  _STROUTL = 0xfa6
                    0x0fa8                  STROUTH = 0xfa8
                    0x0fa8                  _STROUTH = 0xfa8
                    0x0faa                  STROVCNT = 0xfaa
                    0x0faa                  _STROVCNT = 0xfaa
                    0x0ff0                  JDATAH = 0xff0
                    0x0ff0                  _JDATAH = 0xff0
                    0x0ff2                  JDATAL = 0xff2
                    0x0ff2                  _JDATAL = 0xff2
                    0x0144                  IC1 = 0x144
                    0x0144                  _IC1 = 0x144
                    0x014c                  IC2 = 0x14c
                    0x014c                  _IC2 = 0x14c
                    0x0154                  IC3 = 0x154
                    0x0154                  _IC3 = 0x154
                    0x015c                  IC4 = 0x15c
                    0x015c                  _IC4 = 0x15c
                    0x0904                  OC1 = 0x904
                    0x0904                  _OC1 = 0x904
                    0x090e                  OC2 = 0x90e
                    0x090e                  _OC2 = 0x90e
                    0x0918                  OC3 = 0x918
                    0x0918                  _OC3 = 0x918
                    0x0922                  OC4 = 0x922
                    0x0922                  _OC4 = 0x922
                    0x0240                  SPI1 = 0x240
                    0x0240                  _SPI1 = 0x240
                    0x0260                  SPI2 = 0x260
                    0x0260                  _SPI2 = 0x260
                    0x0220                  UART1 = 0x220
                    0x0220                  _UART1 = 0x220
                    0x0230                  UART2 = 0x230
                    0x0230                  _UART2 = 0x230
START GROUP
LOAD /opt/microchip/xc16/v1.26/bin/bin/../../lib/liblega-pic30-elf.a
LOAD /opt/microchip/xc16/v1.26/bin/bin/../../lib/libm-elf.a
LOAD /opt/microchip/xc16/v1.26/bin/bin/../../lib/liblega-c-elf.a
END GROUP
OUTPUT(dist/default/production/ForthEx.X.production.elf elf32-pic30)
LOAD FGS

.user_dict.bss      0x1300       0x6d00
 .user_dict.bss
                    0x1300       0x6d00 build/default/production/forthex.o
                    0x1300                  _user_dict

.heap.bss           0x8000       0x4a00
 .heap.bss          0x8000       0x4a00 build/default/production/forthex.o
                    0x8000                  _heap

.tvout.buffer.bss
                    0xca00        0x600
 .tvout.buffer.bss
                    0xca00        0x600 build/default/production/forthex.o
                    0xca00                  _video_buffer

.return.stack.bss
                    0x1000         0x80
 .return.stack.bss
                    0x1000         0x80 build/default/production/forthex.o
                    0x1000                  rstack

.param.stack.bss
                    0x1080         0x40
 .param.stack.bss
                    0x1080         0x40 build/default/production/forthex.o
                    0x1080                  pstack

.control.stack.bss
                    0x10c0         0x40
 .control.stack.bss
                    0x10c0         0x40 build/default/production/forthex.o
                    0x10c0                  cstack

.boot.bss           0x12f8          0x8
 .boot.bss          0x12f8          0x8 build/default/production/forthex.o
                    0x12f8                  _boot_header

.paste.bss          0x1100         0x52
 .paste.bss         0x1100         0x52 build/default/production/forthex.o

.tib.bss            0x1152         0x50
 .tib.bss           0x1152         0x50 build/default/production/forthex.o
                    0x1152                  tib

.pad.bss            0x11a2         0x50
 .pad.bss           0x11a2         0x50 build/default/production/forthex.o
                    0x11a2                  pad

.hardware.bss       0x11f2         0x44
 .hardware.bss      0x11f2         0x44 build/default/production/forthex.o
                    0x11f4                  sdc_status
                    0x122a                  systicks
                    0x122c                  seed
                    0x1230                  fwarm

.serial.bss         0x1236         0x26
 .serial.bss        0x1236         0x26 build/default/production/forthex.o

.keyboard.bss       0x125c         0x24
 .keyboard.bss      0x125c         0x24 build/default/production/forthex.o
                    0x125c                  kbd_queue
                    0x127c                  kbd_head

.sys_vars.bss       0x1280         0x20
 .sys_vars.bss      0x1280         0x20 build/default/production/forthex.o
                    0x1280                  _SYS_VARS
                    0x1280                  csp
                    0x1282                  _SYSLATEST
                    0x1284                  _LATEST
                    0x1286                  _TIB
                    0x1288                  _PAD
                    0x128a                  _PASTE
                    0x128c                  _TICKSOURCE
                    0x128e                  _CNTSOURCE
                    0x1290                  _DP
                    0x1292                  _BASE
                    0x1294                  _STATE
                    0x1296                  _TOIN
                    0x1298                  _HP

.tvout.bss          0x12a0          0xc
 .tvout.bss         0x12a0          0xc build/default/production/forthex.o
                    0x12a3                  video_on
                    0x12a4                  xpos
                    0x12a5                  ypos
                    0x12a6                  cursor_dly
                    0x12a8                  cursor_sema
                    0x12a9                  fcursor

.heap_vars.bss      0x12ac          0x6
 .heap_vars.bss
                    0x12ac          0x6 build/default/production/forthex.o

.sound.bss          0x12b2          0x2
 .sound.bss         0x12b2          0x2 build/default/production/forthex.o
                    0x12b2                  tone_len

.start.text       0x000200         0x2e
 .start.text      0x000200         0x2e build/default/production/forthex.o
                  0x000200                  __reset

.vars_init          0xf800         0x22 address de chargement 0x007800  
 .vars_init         0xf800         0x22 build/default/production/forthex.o
                    0xf800                  vars_count

.ivt._T2Interrupt
                  0x000022          0x2
 .ivt._T2Interrupt
                  0x000022          0x2 build/default/production/forthex.o

.ivt._OC2Interrupt
                  0x000020          0x2
 .ivt._OC2Interrupt
                  0x000020          0x2 build/default/production/forthex.o

.ivt._U1RXInterrupt
                  0x00002a          0x2
 .ivt._U1RXInterrupt
                  0x00002a          0x2 build/default/production/forthex.o

.ivt._U2RXInterrupt
                  0x000050          0x2
 .ivt._U2RXInterrupt
                  0x000050          0x2 build/default/production/forthex.o

.ivt._CNInterrupt
                  0x00003a          0x2
 .ivt._CNInterrupt
                  0x00003a          0x2 build/default/production/forthex.o

.ivt._MathError
                  0x00000c          0x2
 .ivt._MathError
                  0x00000c          0x2 build/default/production/forthex.o

.ivt._StackError
                  0x00000a          0x2
 .ivt._StackError
                  0x00000a          0x2 build/default/production/forthex.o

.ivt._T1Interrupt
                  0x00001a          0x2
 .ivt._T1Interrupt
                  0x00001a          0x2 build/default/production/forthex.o

.ivt._INT1Interrupt
                  0x00003c          0x2
 .ivt._INT1Interrupt
                  0x00003c          0x2 build/default/production/forthex.o

.font.const         0xb424        0x400 address de chargement 0x003424  
 .font.const        0xb424        0x400 build/default/production/font.o
                    0xb424                  _font

.str.const          0xb824         0x66 address de chargement 0x003824  
 .str.const         0xb824         0x66 build/default/production/forthex.o
                    0xb824                  _version
                    0xb831                  _math_error
                    0xb847                  _user_aborted
                    0xb860                  _stack_reset
                    0xb873                  _unknown_reset

.forth_code.text
                  0x00388a       0x13a4
 .forth_code.text
                  0x00388a       0x13a4 build/default/production/forthex.o
                  0x00388a                  ENTER
                  0x003894                  DOUSER
                  0x0038a0                  DOVAR
                  0x0038aa                  DOCONST
                  0x0038b4                  code_EXIT
                  0x0038bc                  code_CALL
                  0x0038cc                  code_LIT
                  0x0038d6                  code_CLIT
                  0x0038e2                  code_BRANCH
                  0x0038ea                  code_TBRANCH
                  0x0038f8                  code_ZBRANCH
                  0x003906                  code_DODO
                  0x003918                  code_DOQDO
                  0x00392a                  code_DOLOOP
                  0x003944                  code_DOPLOOP
                  0x003962                  code_DOI
                  0x00396c                  code_DOL
                  0x003976                  code_DOJ
                  0x003980                  code_UNLOOP
                  0x00398a                  code_IPFETCH
                  0x003994                  code_REBOOT
                  0x003996                  code_EXECUTE
                  0x00399e                  code_FETCHEXEC
                  0x0039a2                  code_VEXEC
                  0x0039ac                  code_FETCH
                  0x0039b4                  code_CFETCH
                  0x0039be                  code_EFETCH
                  0x0039cc                  code_ECFETCH
                  0x0039dc                  code_TWOFETCH
                  0x0039ea                  code_TBLFETCH
                  0x0039fa                  code_TBLSTORE
                  0x003a0e                  code_STORE
                  0x003a18                  code_CSTORE
                  0x003a24                  code_TWOSTORE
                  0x003a30                  code_DUP
                  0x003a38                  code_TWODUP
                  0x003a44                  code_QDUP
                  0x003a50                  code_DROP
                  0x003a58                  code_TWODROP
                  0x003a62                  code_RDROP
                  0x003a6a                  code_SWAP
                  0x003a76                  code_TWOSWAP
                  0x003a8a                  code_ROT
                  0x003a9c                  code_NROT
                  0x003aac                  code_OVER
                  0x003ab6                  code_TWOOVER
                  0x003ac4                  code_NIP
                  0x003acc                  code_TOR
                  0x003ad6                  code_RFROM
                  0x003ae0                  code_RFETCH
                  0x003aea                  code_SPFETCH
                  0x003af6                  code_SPSTORE
                  0x003afe                  code_RPFETCH
                  0x003b08                  code_RPSTORE
                  0x003b12                  code_TUCK
                  0x003b1e                  code_DEPTH
                  0x003b2c                  code_PICK
                  0x003b3a                  code_TOCSTK
                  0x003b48                  code_CSTKFROM
                  0x003b56                  code_MSB
                  0x003b60                  code_MAXINT
                  0x003b6a                  code_MININT
                  0x003b74                  code_PLUS
                  0x003b7c                  code_MINUS
                  0x003b86                  code_ONEPLUS
                  0x003b8e                  code_TWOPLUS
                  0x003b96                  code_ONEMINUS
                  0x003b9e                  code_TWOMINUS
                  0x003ba6                  code_TWOSTAR
                  0x003bae                  code_TWOSLASH
                  0x003bb6                  code_LSHIFT
                  0x003bd2                  code_RSHIFT
                  0x003bee                  code_PLUSSTORE
                  0x003bfc                  code_DPLUS
                  0x003c0e                  code_MPLUS
                  0x003c1e                  code_STAR
                  0x003c28                  code_MSTAR
                  0x003c34                  code_UMSTAR
                  0x003c40                  code_UDSTAR
                  0x003c54                  code_DIVIDE
                  0x003c62                  code_MOD
                  0x003c70                  code_STARSLASH
                  0x003c82                  code_STARSLASHMOD
                  0x003c96                  code_SLASHMOD
                  0x003ca6                  code_UMSLASHMOD
                  0x003cb8                  code_UDSLASHMOD
                  0x003cd4                  code_MAX
                  0x003ce2                  code_MIN
                  0x003cf0                  code_UMAX
                  0x003cfe                  code_UMIN
                  0x003d0c                  code_WITHIN
                  0x003d1a                  code_EVEN
                  0x003d28                  code_ODD
                  0x003d36                  code_ABS
                  0x003d40                  code_DABS
                  0x003d56                  code_STOD
                  0x003d66                  code_QNEGATE
                  0x003d74                  code_AND
                  0x003d7c                  code_OR
                  0x003d84                  code_XOR
                  0x003d8c                  code_NOT
                  0x003d9c                  code_INVERT
                  0x003da4                  code_DINVERT
                  0x003dae                  code_NEGATE
                  0x003db6                  code_DNEGATE
                  0x003dc6                  code_ZEROEQ
                  0x003dd0                  code_ZERODIFF
                  0x003de0                  code_ZEROLT
                  0x003dec                  code_ZEROGT
                  0x003dfc                  code_EQUAL
                  0x003e0c                  code_NOTEQ
                  0x003e1c                  code_LESS
                  0x003e2c                  code_GREATER
                  0x003e3c                  code_ULESS
                  0x003e4c                  code_UGREATER
                  0x003e5c                  code_CELL
                  0x003e66                  code_CELLPLUS
                  0x003e6e                  code_CELLS
                  0x003e78                  code_ALIGNED
                  0x003e82                  code_TOCHAR
                  0x003e90                  code_MOVE
                  0x003e98                  code_CMOVE
                  0x003eb8                  code_CMOVETO
                  0x003edc                  code_SCAN
                  0x003efe                  code_FILL
                  0x003f1c                  code_MINUSTRAILING
                  0x003f32                  code_VERSION
                  0x003f3c                  code_R0
                  0x003f46                  code_S0
                  0x003f50                  code_RAMEND
                  0x003f5a                  code_IMMED
                  0x003f64                  code_HIDDEN
                  0x003f6e                  code_NMARK
                  0x003f78                  code_LENMASK
                  0x003f82                  code_BL
                  0x003f8c                  code_TIBSIZE
                  0x003f96                  code_PADSIZE
                  0x003fa0                  code_ULIMIT
                  0x003faa                  code_DOCOL
                  0x003fb4                  code_TRUE
                  0x003fbe                  code_FALSE
                  0x003fc8                  code_DP0
                  0x003fd2                  code_TSOURCE
                  0x003fe0                  code_SRCSTORE
                  0x003fee                  code_UPPER
                  0x004010                  code_SKIP
                  0x00402c                  code_FIND
                  0x004072                  FETCH_EXEC
                  0x00407c                  code_SCRBUF
                  0x004086                  code_HTAB
                  0x004090                  code_TVOUT_INIT
                  0x0040f6                  code_VIDEO
                  0x004102                  code_CURENBL
                  0x00411e                  code_CLS
                  0x004134                  code_SCRLUP
                  0x00413e                  code_SCRLDN
                  0x004148                  code_GETX
                  0x004156                  code_GETY
                  0x004164                  code_SETX
                  0x004182                  code_SETY
                  0x0041a0                  code_CURADR
                  0x0041b6                  code_SCRCHAR
                  0x0041de                  code_CHRTOSCR
                  0x004206                  code_INVLN
                  0x00422e                  code_LCLEFT
                  0x004246                  code_LCRIGHT
                  0x004260                  code_LCHOME
                  0x004274                  code_LCUP
                  0x00428c                  code_LCDOWN
                  0x0042a6                  code_TGLCHAR
                  0x0042bc                  code_PUTC
                  0x0042fa                  code_CR
                  0x00431c                  code_CLRLN
                  0x00433e                  code_LCEMITQ
                  0x004348                  code_SERIAL_INIT
                  0x004374                  code_SERENBL
                  0x00438a                  code_BAUD
                  0x0043b0                  code_SPUTC
                  0x0043c4                  code_SGETC
                  0x0043fa                  code_SREADYQ
                  0x004408                  code_SGETCQ
                  0x004416                  code_SOUND_INIT
                  0x004434                  code_TONE
                  0x004454                  code_STORE_INIT
                  0x0044d6                  code_XWRITE
                  0x004516                  code_XREAD
                  0x004550                  code_QWIP
                  0x00457e                  code_RAMTOEE
                  0x0045dc                  code_EEREAD
                  0x00461a                  code_EPAGE
                  0x004624                  code_ESECTOR
                  0x00462e                  code_EALL
                  0x004638                  code_EERASE
                  0x00469a                  code_DEVID
                  0x0046a4                  code_FN_READ
                  0x0046ae                  code_FN_WRITE
                  0x0046b8                  code_FN_BLKTOADR
                  0x0046c2                  code_KBD_INIT
                  0x0046f2                  code_KBD_RESET
                  0x00470c                  code_LCEKEYQ
                  0x00471e                  code_LCEKEY
                  0x00473c                  code_LCFILTER
                  0x004766                  code_XON
                  0x004770                  code_XOFF
                  0x00477a                  code_TBLFETCHL
                  0x00478a                  code_TBLFETCHH
                  0x00479a                  code_IFETCH
                  0x0047b6                  code_FADDR
                  0x0047c4                  code_FNEXT
                  0x0047d2                  code_WRITE_LATCH
                  0x0047fa                  code_FLASH_OP
                  0x00481c                  code_UDREL
                  0x004842                  code_IMGHEAD
                  0x00484c                  code_MAGIC
                  0x004856                  code_IMGROW
                  0x004860                  code_SDCINIT
                  0x00492a                  code_QSDC
                  0x004934                  code_SDCREAD
                  0x004980                  code_SDCWRITE
                  0x0049f0                  code_SDFIRST
                  0x0049fa                  code_HEAP_INIT
                  0x004a14                  code_HEAPSIZE
                  0x004a1e                  code_HEAPFREE
                  0x004a28                  code_FREE_BYTES_STORE
                  0x004a32                  code_FREELIST
                  0x004a3c                  code_USEDLIST
                  0x004a46                  code_BLK
                  0x004a50                  code_SCR
                  0x004a5a                  code_BLKDEV
                  0x004a64                  code_BUFARRAY
                  0x004a6e                  code_TICKS_INIT
                  0x004a8a                  code_SET_CLOCK
                  0x004a9a                  code_CLR_LOW_RAM
                  0x004aa6                  code_CLR_RAM
                  0x004ab2                  code_IO_LOCK
                  0x004aba                  code_VARS_INIT
                  0x004ad4                  code_TICKS
                  0x004ade                  code_USEC
                  0x004af8                  code_LFSR
                  0x004b10                  code_RAND
                  0x004b42                  code_SRAND
                  0x004b52                  code_CRCENBL
                  0x004b62                  code_QCRCFIFO
                  0x004b76                  code_CRCLE
                  0x004b86                  code_CRCSTART
                  0x004b90                  code_CRCDW
                  0x004ba6                  code_CRCPL
                  0x004bba                  code_CRCPOLY
                  0x004bc8                  code_CRCFETCH
                  0x004bd2                  code_CRCDFETCH
                  0x004be0                  code_CRC0
                  0x004bee                  code_CRCCSTORE
                  0x004bfe                  code_CRCSTORE
                  0x004c0c                  code_CRCDSTORE
                  0x004c20                  code_CRCDONE

.text             0x004c2e        0x278
 .text            0x004c2e        0x278 build/default/production/forthex.o
                  0x004c2e                  cursor_blink
                  0x004c3e                  toggle_char
                  0x004c62                  cursor_enable
                  0x004c76                  cursor_disable
                  0x004c84                  scroll_up
                  0x004cb8                  scroll_down
                  0x004ea2                  _code_end
