Microchip Technology Inc, v1.26 (A)

Tool Name:
  /opt/microchip/xc16/v1.26/bin/bin/../bin/elf-ld

Command:
  -p24EP512GP202 \
  -o \
  dist/default/production/ForthEx.X.production.elf \
  -L/opt/microchip/xc16/v1.26/bin/bin/.. \
  -L/opt/microchip/xc16/v1.26/bin/bin/../../lib \
  -L/opt/microchip/xc16/v1.26/bin/bin/../../support/PIC24E/gld \
  -L/opt/microchip/xc16/v1.26/bin/bin/../../support/PIC24F/gld \
  -L/opt/microchip/xc16/v1.26/bin/bin/../../support/PIC24H/gld \
  -L/opt/microchip/xc16/v1.26/bin/bin/../../support/dsPIC30F/gld \
  -L/opt/microchip/xc16/v1.26/bin/bin/../../support/dsPIC33E/gld \
  -L/opt/microchip/xc16/v1.26/bin/bin/../../support/dsPIC33F/gld \
  build/default/production/mcu_config_bits.o \
  build/default/production/forthex.o \
  build/default/production/font.o \
  --no-local-stack \
  --defsym=__MPLAB_BUILD=1 \
  -Tp24EP512GP202.gld.00 \
  --stack=16 \
  --check-sections \
  --no-data-init \
  --pack-data \
  --no-handles \
  --isr \
  --no-gc-sections \
  --fill-upper=0 \
  --stackguard=0 \
  --no-force-link \
  --smart-io \
  -Map=dist/default/production/ForthEx.X.production.map \
  --report-mem \
  --memorysummary \
  dist/default/production/memoryfile.xml \
  -start-group \
  --library=lega-pic30-elf \
  --library=m-elf \
  --library=lega-c-elf \
  -end-group \


Optional library libp24EP512GP202.a not found
Archive member included because of file (symbol)

/opt/microchip/xc16/v1.26/bin/bin/../../lib/liblega-pic30-elf.a(crt1_extendedep.o)
                              (__resetALT)


Selected CodeGuard Options:
  FGS:GWRP:OFF
  FGS:GCP:OFF

CodeGuard FLASH Memory:
  boot    (none)
  secure  (none)
  general 0x200 to 0x557ea

CodeGuard RAM Memory:
  general 0x1000 to 0xcfff
  secure  (none)
  boot    (none)


xc16-ld 1.26 (A)

Program Memory  [Origin = 0x200, Length = 0x555ec]

section                    address   length (PC units)   length (bytes) (dec)
-------                    -------   -----------------   --------------------
.start.text                  0x200                0x2e            0x45  (69)
.intr                        0x22e               0x196           0x261  (609)
.sysdict                     0x3c4              0x3a50          0x5778  (22392)
.font.const                 0x3e14               0x400           0x600  (1536)
.str.const                  0x4214                0x96            0xe1  (225)
.forth_code.text            0x42aa              0x1556          0x2001  (8193)
.text                       0x5800               0x376           0x531  (1329)
.vars_init                  0x7800                0x22            0x33  (51)

                 Total program memory used (bytes):         0x8664  (34404) 6%


Ivt Memory  [Origin = 0x4, Length = 0x1fc]

section                    address   length (PC units)   length (bytes) (dec)
-------                    -------   -----------------   --------------------
.ivt._StackError               0xa                 0x2             0x3  (3)
.ivt._MathError                0xc                 0x2             0x3  (3)
.ivt._T1Interrupt             0x1a                 0x2             0x3  (3)
.ivt._OC2Interrupt            0x20                 0x2             0x3  (3)
.ivt._T2Interrupt             0x22                 0x2             0x3  (3)
.ivt._U1RXInterrupt           0x2a                 0x2             0x3  (3)
.ivt._CNInterrupt             0x3a                 0x2             0x3  (3)
.ivt._INT1Interrupt           0x3c                 0x2             0x3  (3)
.ivt._U2RXInterrupt           0x50                 0x2             0x3  (3)


Data Memory  [Origin = 0x1000, Length = 0xc000]

section                    address      alignment gaps    total length  (dec)
-------                    -------      --------------    -------------------
.return.stack.bss           0x1000                   0            0x80  (128)
.param.stack.bss            0x1080                   0            0x40  (64)
.control.stack.bss          0x10c0                   0            0x40  (64)
.paste.bss                  0x1100                   0            0x52  (82)
.tib.bss                    0x1152                   0            0x50  (80)
.pad.bss                    0x11a2                   0            0x50  (80)
.hardware.bss               0x11f2                   0            0x36  (54)
.serial.bss                 0x1228                   0            0x26  (38)
.keyboard.bss               0x124e                   0            0x24  (36)
.sys_vars.bss               0x1272                   0            0x20  (32)
.sdc.bss                    0x1292                   0            0x1a  (26)
.tvout.bss                  0x12ac                   0             0xc  (12)
.heap_vars.bss              0x12b8                   0             0x6  (6)
.vt102.bss                  0x12be                   0             0x2  (2)
.sound.bss                  0x12c0                   0             0x2  (2)
.boot.bss                   0x12f8                   0             0x8  (8)
.user_dict.bss              0x1300                   0          0x6d00  (27904)
.heap.bss                   0x8000                   0          0x4a00  (18944)
.tvout.buffer.bss           0xca00                   0           0x600  (1536)

                 Total data memory used (bytes):         0xbfca  (49098) 99%


Dynamic Memory Usage

region                     address                      maximum length  (dec)
------                     -------                      ---------------------
heap                             0                                   0  (0)
stack                       0x1000                                0x80  (128)

                 Maximum dynamic memory (bytes):           0x80  (128)


External Symbols in Data Memory (by address):

                    0x1000                  rstack
                    0x1080                  pstack
                    0x10c0                  cstack
                    0x1152                  tib
                    0x11a2                  pad
                    0x121c                  systicks
                    0x121e                  seed
                    0x1222                  fwarm
                    0x124e                  kbd_queue
                    0x126e                  kbd_head
                    0x1272                  _SYS_VARS
                    0x1272                  csp
                    0x1274                  _SYSLATEST
                    0x1276                  _LATEST
                    0x1278                  _TIB
                    0x127a                  _PAD
                    0x127c                  _PASTE
                    0x127e                  _TICKSOURCE
                    0x1280                  _CNTSOURCE
                    0x1282                  _DP
                    0x1284                  _BASE
                    0x1286                  _STATE
                    0x1288                  _TOIN
                    0x128a                  _HP
                    0x1292                  sdc_status
                    0x12b0                  xpos
                    0x12b1                  ypos
                    0x12b2                  cursor_dly
                    0x12b4                  cursor_sema
                    0x12b5                  fcursor
                    0x12c0                  tone_len
                    0x12f8                  _boot_header
                    0x1300                  _user_dict
                    0x8000                  _heap
                    0xca00                  _video_buffer

External Symbols in Data Memory (by name):

                    0x1284                  _BASE
                    0x1280                  _CNTSOURCE
                    0x1282                  _DP
                    0x128a                  _HP
                    0x1276                  _LATEST
                    0x127a                  _PAD
                    0x127c                  _PASTE
                    0x1286                  _STATE
                    0x1274                  _SYSLATEST
                    0x1272                  _SYS_VARS
                    0x1278                  _TIB
                    0x127e                  _TICKSOURCE
                    0x1288                  _TOIN
                    0x12f8                  _boot_header
                    0x8000                  _heap
                    0x1300                  _user_dict
                    0xca00                  _video_buffer
                    0x1272                  csp
                    0x10c0                  cstack
                    0x12b2                  cursor_dly
                    0x12b4                  cursor_sema
                    0x12b5                  fcursor
                    0x1222                  fwarm
                    0x126e                  kbd_head
                    0x124e                  kbd_queue
                    0x11a2                  pad
                    0x1080                  pstack
                    0x1000                  rstack
                    0x1292                  sdc_status
                    0x121e                  seed
                    0x121c                  systicks
                    0x1152                  tib
                    0x12c0                  tone_len
                    0x12b0                  xpos
                    0x12b1                  ypos

External Symbols in Program Memory (by address):

                  0x000200                  __reset
                  0x00022e                  __T2Interrupt
                  0x0002ba                  __OC2Interrupt
                  0x000320                  __U1RXInterrupt
                  0x00036c                  __U2RXInterrupt
                  0x000390                  __CNInterrupt
                  0x00039a                  __MathError
                  0x0003a0                  __StackError
                  0x0003a6                  __DefaultInterrupt
                  0x0003a8                  __T1Interrupt
                  0x0003c2                  __INT1Interrupt
                  0x0003c4                  EXIT
                  0x0003c6                  LIT
                  0x0003c8                  CLIT
                  0x0003ca                  BRANCH
                  0x0003cc                  TBRANCH
                  0x0003ce                  ZBRANCH
                  0x0003d0                  DODO
                  0x0003d2                  DOQDO
                  0x0003d4                  DOLOOP
                  0x0003d6                  DOPLOOP
                  0x0003dc                  lfa_VERSION
                  0x0003e6                  VERSION
                  0x0003e8                  lfa_R0
                  0x0003ee                  R0
                  0x0003f0                  lfa_S0
                  0x0003f6                  S0
                  0x0003f8                  lfa_RAMEND
                  0x000402                  RAMEND
                  0x000404                  lfa_ULIMIT
                  0x00040e                  ULIMIT
                  0x000410                  lfa_TRUE
                  0x000418                  TRUE
                  0x00041a                  lfa_FALSE
                  0x000422                  FALSE
                  0x000424                  lfa_DP0
                  0x00042a                  DP0
                  0x00042c                  lfa_CELL
                  0x000434                  CELL
                  0x000436                  lfa_DP
                  0x00043c                  DP
                  0x000440                  lfa_BASE
                  0x000448                  BASE
                  0x00044c                  lfa_SYSLATEST
                  0x000458                  SYSLATEST
                  0x00045c                  lfa_LATEST
                  0x000466                  LATEST
                  0x00046a                  lfa_DUP
                  0x000470                  DUP
                  0x000472                  lfa_TWODUP
                  0x00047a                  TWODUP
                  0x00047c                  lfa_QDUP
                  0x000484                  QDUP
                  0x000486                  lfa_DROP
                  0x00048e                  DROP
                  0x000490                  lfa_TWODROP
                  0x000498                  TWODROP
                  0x00049a                  lfa_RDROP
                  0x0004a2                  RDROP
                  0x0004a4                  lfa_SWAP
                  0x0004ac                  SWAP
                  0x0004ae                  lfa_TWOSWAP
                  0x0004b6                  TWOSWAP
                  0x0004b8                  lfa_ROT
                  0x0004be                  ROT
                  0x0004c0                  lfa_NROT
                  0x0004c8                  NROT
                  0x0004ca                  lfa_OVER
                  0x0004d2                  OVER
                  0x0004d4                  lfa_TWOOVER
                  0x0004dc                  TWOOVER
                  0x0004de                  lfa_NIP
                  0x0004e4                  NIP
                  0x0004e6                  lfa_TUCK
                  0x0004ee                  TUCK
                  0x0004f0                  lfa_TOR
                  0x0004f6                  TOR
                  0x0004f8                  lfa_RFROM
                  0x0004fe                  RFROM
                  0x000500                  lfa_IPFETCH
                  0x000506                  IPFETCH
                  0x000508                  lfa_DEPTH
                  0x000510                  DEPTH
                  0x000512                  lfa_PICK
                  0x00051a                  PICK
                  0x00051c                  lfa_RFETCH
                  0x000522                  RFETCH
                  0x000524                  lfa_SPFETCH
                  0x00052a                  SPFETCH
                  0x00052c                  lfa_SPSTORE
                  0x000532                  SPSTORE
                  0x000534                  lfa_RPFETCH
                  0x00053a                  RPFETCH
                  0x00053c                  lfa_RPSTORE
                  0x000542                  RPSTORE
                  0x000544                  lfa_TOCSTK
                  0x00054c                  TOCSTK
                  0x00054e                  lfa_CSTKFROM
                  0x000556                  CSTKFROM
                  0x000558                  lfa_FETCH
                  0x00055c                  FETCH
                  0x00055e                  lfa_CFETCH
                  0x000564                  CFETCH
                  0x000566                  lfa_TWOFETCH
                  0x00056c                  TWOFETCH
                  0x00056e                  lfa_BIDFETCH
                  0x000576                  BIDFETCH
                  0x000578                  lfa_TBLFETCH
                  0x000580                  TBLFETCH
                  0x000582                  lfa_TBLSTORE
                  0x00058a                  TBLSTORE
                  0x00058c                  lfa_STORE
                  0x000590                  STORE
                  0x000592                  lfa_CSTORE
                  0x000598                  CSTORE
                  0x00059a                  lfa_TWOSTORE
                  0x0005a0                  TWOSTORE
                  0x0005a2                  lfa_TWOTOR
                  0x0005a8                  TWOTOR
                  0x0005b8                  lfa_TWORFROM
                  0x0005be                  TWORFROM
                  0x0005ce                  lfa_TWORFETCH
                  0x0005d4                  TWORFETCH
                  0x0005e8                  lfa_CELLPLUS
                  0x0005f0                  CELLPLUS
                  0x0005f2                  lfa_CELLS
                  0x0005fa                  CELLS
                  0x0005fc                  lfa_DOI
                  0x000600                  DOI
                  0x000602                  lfa_DOL
                  0x000606                  DOL
                  0x000608                  lfa_DOJ
                  0x00060c                  DOJ
                  0x00060e                  lfa_UNLOOP
                  0x000618                  UNLOOP
                  0x00061a                  lfa_EXECUTE
                  0x000624                  EXECUTE
                  0x000626                  lfa_FETCHEXEC
                  0x00062e                  FETCHEXEC
                  0x000630                  lfa_VEXEC
                  0x000638                  VEXEC
                  0x00063a                  lfa_CALL
                  0x000642                  CALL
                  0x000644                  IMMED
                  0x000646                  HIDDEN
                  0x000648                  NMARK
                  0x00064a                  LENMASK
                  0x00064c                  lfa_TIBSIZE
                  0x000656                  TIBSIZE
                  0x000658                  lfa_PADSIZE
                  0x000662                  PADSIZE
                  0x000664                  lfa_STATE
                  0x00066c                  STATE
                  0x000670                  lfa_PAD
                  0x000676                  PAD
                  0x00067a                  lfa_TIB
                  0x000680                  TIB
                  0x000684                  lfa_PASTE
                  0x00068c                  PASTE
                  0x000690                  lfa_TOIN
                  0x000696                  TOIN
                  0x00069a                  lfa_HP
                  0x0006a0                  HP
                  0x0006a4                  lfa_WORDS
                  0x0006ac                  WORDS
                  0x0006f6                  lfa_ADRTOIN
                  0x000700                  ADRTOIN
                  0x000718                  lfa_PARSE
                  0x000720                  PARSE
                  0x000746                  lfa_TOCOUNTED
                  0x000752                  TOCOUNTED
                  0x000760                  lfa_PARSENAME
                  0x00076e                  PARSENAME
                  0x000770                  lfa_WORD
                  0x000778                  WORD
                  0x000796                  lfa_FIND
                  0x00079e                  FIND
                  0x0007a0                  lfa_ACCEPT
                  0x0007aa                  ACCEPT
                  0x00086a                  lfa_COUNT
                  0x000872                  COUNT
                  0x000880                  lfa_INTERPRET
                  0x00088c                  INTERPRET
                  0x0008e4                  lfa_EVAL
                  0x0008f0                  EVAL
                  0x000930                  OK
                  0x000956                  lfa_ABORT
                  0x00095e                  ABORT
                  0x000980                  QABORT
                  0x000996                  lfa_ABORTQUOTE
                  0x0009a0                  ABORTQUOTE
                  0x0009aa                  lfa_CLIP
                  0x0009b2                  CLIP
                  0x0009ce                  lfa_GETCLIP
                  0x0009d8                  GETCLIP
                  0x0009ee                  REPL
                  0x000a14                  lfa_QUIT
                  0x000a1c                  QUIT
                  0x000a2c                  lfa_HERE
                  0x000a34                  HERE
                  0x000a3c                  lfa_ALIGN
                  0x000a44                  ALIGN
                  0x000a5e                  lfa_ALIGNED
                  0x000a68                  ALIGNED
                  0x000a6a                  lfa_SOURCE
                  0x000a74                  SOURCE
                  0x000a76                  lfa_SRCSTORE
                  0x000a80                  SRCSTORE
                  0x000a82                  lfa_NFATOLFA
                  0x000a8c                  NFATOLFA
                  0x000a96                  lfa_NFATOCFA
                  0x000aa0                  NFATOCFA
                  0x000ab2                  lfa_TOBODY
                  0x000aba                  TOBODY
                  0x000ad0                  lfa_CFATONFA
                  0x000ada                  CFATONFA
                  0x000b04                  lfa_QEMPTY
                  0x000b0e                  QEMPTY
                  0x000b18                  lfa_IMMEDIATE
                  0x000b24                  IMMEDIATE
                  0x000b3e                  lfa_HIDE
                  0x000b46                  HIDE
                  0x000b60                  NAMEMARK
                  0x000b7a                  lfa_REVEAL
                  0x000b84                  REVEAL
                  0x000ba0                  lfa_ALLOT
                  0x000ba8                  ALLOT
                  0x000bb0                  lfa_COMMA
                  0x000bb4                  COMMA
                  0x000bc2                  lfa_CCOMMA
                  0x000bc8                  CCOMMA
                  0x000bd6                  lfa_TICK
                  0x000bda                  TICK
                  0x000c06                  lfa_COMPILETICK
                  0x000c0c                  COMPILETICK
                  0x000c1a                  MARKADDR
                  0x000c20                  BACKJUMP
                  0x000c2a                  MARKSLOT
                  0x000c36                  FOREJUMP
                  0x000c46                  CFA_COMMA
                  0x000c56                  lfa_LBRACKET
                  0x000c5a                  LBRACKET
                  0x000c66                  lfa_RBRACKET
                  0x000c6a                  RBRACKET
                  0x000c76                  lfa_QWORD
                  0x000c7e                  QWORD
                  0x000c9c                  lfa_POSTONE
                  0x000ca8                  POSTONE
                  0x000cc4                  lfa_LITERAL
                  0x000cce                  LITERAL
                  0x000ce0                  DOSTR
                  0x000cf6                  STRQUOTE
                  0x000cfe                  RT_CQUOTE
                  0x000d04                  DOTSTR
                  0x000d0e                  SLIT
                  0x000d1a                  STRCOMPILE
                  0x000d28                  lfa_SQUOTE
                  0x000d2e                  SQUOTE
                  0x000d3a                  lfa_CQUOTE
                  0x000d40                  CQUOTE
                  0x000d4c                  lfa_DOTQUOTE
                  0x000d52                  DOTQUOTE
                  0x000d6a                  lfa_RECURSE
                  0x000d74                  RECURSE
                  0x000d82                  lfa_DO
                  0x000d88                  DO
                  0x000d9c                  lfa_QDO
                  0x000da2                  QDO
                  0x000dbe                  lfa_LEAVE
                  0x000dc6                  LEAVE
                  0x000dd8                  FIXLEAVE
                  0x000dfa                  lfa_LOOP
                  0x000e02                  LOOP
                  0x000e0e                  lfa_PLUSLOOP
                  0x000e16                  PLUSLOOP
                  0x000e22                  lfa_BEGIN
                  0x000e2a                  BEGIN
                  0x000e32                  lfa_AGAIN
                  0x000e3a                  AGAIN
                  0x000e46                  lfa_UNTIL
                  0x000e4e                  UNTIL
                  0x000e5a                  lfa_REPEAT
                  0x000e64                  REPEAT
                  0x000e72                  lfa_WHILE
                  0x000e7a                  WHILE
                  0x000e88                  lfa_IIF
                  0x000e8e                  IIF
                  0x000e9a                  lfa_THEN
                  0x000ea2                  THEN
                  0x000eaa                  lfa_ELSE
                  0x000eb2                  ELSE
                  0x000ec2                  lfa_CASE
                  0x000eca                  CASE
                  0x000ed6                  lfa_OF
                  0x000edc                  OF
                  0x000ef4                  lfa_ENDOF
                  0x000efc                  ENDOF
                  0x000f0c                  lfa_ENDCASE
                  0x000f16                  ENDCASE
                  0x000f2e                  lfa_QCOMPILE
                  0x000f3a                  QCOMPILE
                  0x000f6c                  lfa_QNAME
                  0x000f74                  QNAME
                  0x000f88                  lfa_COLON_NO_NAME
                  0x000f92                  COLON_NO_NAME
                  0x000f9e                  EXITCOMMA
                  0x000fa8                  lfa_HEADER
                  0x000fb2                  HEADER
                  0x000fdc                  lfa_FORGET
                  0x000fe6                  FORGET
                  0x001022                  lfa_MARKER
                  0x00102c                  MARKER
                  0x001046                  RT_MARKER
                  0x00105a                  lfa_COLON
                  0x00105e                  COLON
                  0x00106a                  NOP
                  0x00106e                  lfa_CREATE
                  0x001078                  CREATE
                  0x00108a                  RT_DOES
                  0x0010a2                  lfa_DOESTO
                  0x0010aa                  DOESTO
                  0x0010c4                  lfa_SEMICOLON
                  0x0010c8                  SEMICOLON
                  0x0010d4                  lfa_VARIABLE
                  0x0010e0                  VARIABLE
                  0x0010ec                  lfa_CONSTANT
                  0x0010f8                  CONSTANT
                  0x001108                  NOINIT
                  0x00112c                  DEFEREXEC
                  0x001134                  lfa_DEFER
                  0x00113c                  DEFER
                  0x00114a                  lfa_DEFERSTORE
                  0x001154                  DEFERSTORE
                  0x00115c                  lfa_DEFERFETCH
                  0x001166                  DEFERFETCH
                  0x00116e                  lfa_IS
                  0x001174                  IS
                  0x00117e                  lfa_ACTIONOF
                  0x00118a                  ACTIONOF
                  0x001194                  lfa_EFETCH
                  0x00119a                  EFETCH
                  0x00119c                  lfa_ECFETCH
                  0x0011a2                  ECFETCH
                  0x0011a4                  lfa_ETBLFETCH
                  0x0011ac                  ETBLFETCH
                  0x0011ae                  lfa_MSB
                  0x0011b4                  MSB
                  0x0011b6                  lfa_MAXINT
                  0x0011c0                  MAXINT
                  0x0011c2                  lfa_MININT
                  0x0011cc                  MININT
                  0x0011ce                  lfa_HEX
                  0x0011d4                  HEX
                  0x0011e0                  lfa_DECIMAL
                  0x0011ea                  DECIMAL
                  0x0011f6                  lfa_PLUS
                  0x0011fa                  PLUS
                  0x0011fc                  lfa_MINUS
                  0x001200                  MINUS
                  0x001202                  lfa_ONEPLUS
                  0x001208                  ONEPLUS
                  0x00120a                  lfa_TWOPLUS
                  0x001210                  TWOPLUS
                  0x001212                  lfa_ONEMINUS
                  0x001218                  ONEMINUS
                  0x00121a                  lfa_TWOMINUS
                  0x001220                  TWOMINUS
                  0x001222                  lfa_TWOSTAR
                  0x001228                  TWOSTAR
                  0x00122a                  lfa_TWOSLASH
                  0x001230                  TWOSLASH
                  0x001232                  lfa_LSHIFT
                  0x00123c                  LSHIFT
                  0x00123e                  lfa_RSHIFT
                  0x001248                  RSHIFT
                  0x00124a                  lfa_PLUSSTORE
                  0x001250                  PLUSSTORE
                  0x001252                  lfa_DPLUS
                  0x001258                  DPLUS
                  0x00125a                  lfa_DMINUS
                  0x001260                  DMINUS
                  0x001262                  lfa_MPLUS
                  0x001268                  MPLUS
                  0x00126a                  lfa_STAR
                  0x00126e                  STAR
                  0x001270                  lfa_MSTAR
                  0x001276                  MSTAR
                  0x001278                  lfa_UMSTAR
                  0x00127e                  UMSTAR
                  0x001280                  lfa_UDSTAR
                  0x001286                  UDSTAR
                  0x001288                  lfa_UDSTARD
                  0x001290                  UDSTARD
                  0x0012ae                  lfa_SLASH
                  0x0012b2                  SLASH
                  0x0012b4                  lfa_MOD
                  0x0012ba                  MOD
                  0x0012bc                  lfa_STARSLASH
                  0x0012c2                  STARSLASH
                  0x0012c4                  lfa_STARSLASHMOD
                  0x0012cc                  STARSLASHMOD
                  0x0012ce                  lfa_SLASHMOD
                  0x0012d6                  SLASHMOD
                  0x0012d8                  lfa_UMSLASHMOD
                  0x0012e2                  UMSLASHMOD
                  0x0012e4                  lfa_UDSLASHMOD
                  0x0012ee                  UDSLASHMOD
                  0x0012f0                  lfa_MAX
                  0x0012f6                  MAX
                  0x0012f8                  lfa_MIN
                  0x0012fe                  MIN
                  0x001300                  lfa_UMAX
                  0x001308                  UMAX
                  0x00130a                  lfa_UMIN
                  0x001312                  UMIN
                  0x001314                  lfa_WITHIN
                  0x00131e                  WITHIN
                  0x001320                  lfa_EVEN
                  0x001328                  EVEN
                  0x00132a                  lfa_ODD
                  0x001330                  ODD
                  0x001332                  lfa_ABS
                  0x001338                  ABS
                  0x00133a                  lfa_DABS
                  0x001342                  DABS
                  0x001344                  lfa_STOD
                  0x00134a                  STOD
                  0x00134c                  lfa_QNEGATE
                  0x001356                  QNEGATE
                  0x001358                  lfa_SMSLASHREM
                  0x001362                  SMSLASHREM
                  0x001386                  lfa_FMSLASHMOD
                  0x001390                  FMSLASHMOD
                  0x0013cc                  lfa_EVARPLUS
                  0x0013d4                  EVARPLUS
                  0x0013e2                  lfa_EVARMINUS
                  0x0013ea                  EVARMINUS
                  0x0013f8                  lfa_UDREL
                  0x001400                  UDREL
                  0x001402                  lfa_NEGATE
                  0x00140c                  NEGATE
                  0x00140e                  lfa_DNEGATE
                  0x001418                  DNEGATE
                  0x00141a                  lfa_INVERT
                  0x001424                  INVERT
                  0x001426                  lfa_DINVERT
                  0x001430                  DINVERT
                  0x001432                  lfa_BITMASK
                  0x00143c                  BITMASK
                  0x00143e                  lfa_AND
                  0x001444                  AND
                  0x001446                  lfa_OR
                  0x00144c                  OR
                  0x00144e                  lfa_XOR
                  0x001454                  XOR
                  0x001456                  lfa_NOT
                  0x00145c                  NOT
                  0x00145e                  lfa_ZEROEQ
                  0x001464                  ZEROEQ
                  0x001466                  lfa_ZERODIFF
                  0x00146c                  ZERODIFF
                  0x00146e                  lfa_ZEROLT
                  0x001474                  ZEROLT
                  0x001476                  lfa_ZEROGT
                  0x00147c                  ZEROGT
                  0x00147e                  lfa_EQUAL
                  0x001482                  EQUAL
                  0x001484                  lfa_NOTEQ
                  0x00148a                  NOTEQ
                  0x00148c                  lfa_LESS
                  0x001490                  LESS
                  0x001492                  lfa_GREATER
                  0x001496                  GREATER
                  0x001498                  lfa_ULESS
                  0x00149e                  ULESS
                  0x0014a0                  lfa_UGREATER
                  0x0014a6                  UGREATER
                  0x0014a8                  lfa_SCRBUF
                  0x0014b2                  SCRBUF
                  0x0014b4                  lfa_HTAB
                  0x0014bc                  HTAB
                  0x0014be                  TVOUT_INIT
                  0x0014c0                  lfa_VIDEO
                  0x0014c8                  VIDEO
                  0x0014ca                  LCINIT
                  0x0014e2                  LCBSLASHW
                  0x0014e4                  LCWHITELN
                  0x001500                  lfa_CURENBL
                  0x00150a                  CURENBL
                  0x00150c                  LCCLS
                  0x00150e                  lfa_SCRLUP
                  0x00151a                  SCRLUP
                  0x00151c                  lfa_SCRLDN
                  0x00152a                  SCRLDN
                  0x00152c                  lfa_GETX
                  0x001534                  GETX
                  0x001536                  lfa_GETY
                  0x00153e                  GETY
                  0x001540                  lfa_SETX
                  0x001548                  SETX
                  0x00154a                  lfa_SETY
                  0x001552                  SETY
                  0x001554                  lfa_LNADR
                  0x00155c                  LNADR
                  0x00156c                  lfa_CURADR
                  0x001576                  CURADR
                  0x001578                  LCATXY
                  0x001580                  LCXYQ
                  0x001588                  lfa_SCRCHAR
                  0x001594                  SCRCHAR
                  0x001596                  lfa_CHRTOSCR
                  0x0015a0                  CHRTOSCR
                  0x0015a2                  LCLEFT
                  0x0015a4                  LCRIGHT
                  0x0015a6                  LCHOME
                  0x0015a8                  LCEND
                  0x0015e8                  LCUP
                  0x0015ea                  LCDOWN
                  0x0015ec                  LCTOP
                  0x0015f8                  LCBOTTOM
                  0x001606                  lfa_TGLCHAR
                  0x001610                  TGLCHAR
                  0x001612                  lfa_PUTC
                  0x00161a                  PUTC
                  0x00161c                  LCCRLF
                  0x00161e                  LCTAB
                  0x00163a                  LCDEL
                  0x00165a                  LCINSRT
                  0x00169c                  LCBACKDEL
                  0x0016aa                  LCDELLN
                  0x0016ac                  LCDELEOL
                  0x0016c0                  LCRMVLN
                  0x0016fc                  LCINSRTLN
                  0x00171e                  LCEMITQ
                  0x001720                  SERIAL_INIT
                  0x001722                  lfa_SERENBL
                  0x00172c                  SERENBL
                  0x00172e                  lfa_B2400
                  0x001736                  B2400
                  0x001738                  lfa_B4800
                  0x001740                  B4800
                  0x001742                  lfa_B9600
                  0x00174a                  B9600
                  0x00174c                  lfa_B19200
                  0x001756                  B19200
                  0x001758                  lfa_B38400
                  0x001762                  B38400
                  0x001764                  lfa_B57600
                  0x00176e                  B57600
                  0x001770                  lfa_B115200
                  0x00177a                  B115200
                  0x00177c                  lfa_BAUD
                  0x001784                  BAUD
                  0x001786                  lfa_SPUTC
                  0x00178e                  SPUTC
                  0x001790                  lfa_SGETC
                  0x001798                  SGETC
                  0x00179a                  lfa_SREADYQ
                  0x0017a4                  SREADYQ
                  0x0017a6                  lfa_SGETCQ
                  0x0017b0                  SGETCQ
                  0x0017b2                  STORE_INIT
                  0x0017b4                  XBLKTOADR
                  0x0017c0                  lfa_RAMTOXR
                  0x0017ca                  RAMTOXR
                  0x0017cc                  XWRITE
                  0x0017d8                  lfa_XRTORAM
                  0x0017e2                  XRTORAM
                  0x0017e4                  XREAD
                  0x0017f0                  XBLKCOUNT
                  0x0017f2                  XVALIDQ
                  0x001802                  lfa_QWIP
                  0x00180a                  QWIP
                  0x00180c                  lfa_WWIP
                  0x001814                  WWIP
                  0x00181e                  EEBLKTOADR
                  0x00182a                  lfa_RAMTOEE
                  0x001834                  RAMTOEE
                  0x001836                  lfa_EETORAM
                  0x001840                  EETORAM
                  0x001842                  EEREAD
                  0x00184e                  lfa_EPAGE
                  0x001856                  EPAGE
                  0x001858                  lfa_ESECTOR
                  0x001862                  ESECTOR
                  0x001864                  lfa_EALL
                  0x00186c                  EALL
                  0x00186e                  lfa_EERASE
                  0x001878                  EERASE
                  0x00187a                  EEWRITE
                  0x0018a6                  EEBLKCOUNT
                  0x0018a8                  EEVALIDQ
                  0x0018b8                  lfa_DEVID
                  0x0018c0                  DEVID
                  0x0018c6                  lfa_BLKREAD
                  0x0018d2                  BLKREAD
                  0x0018dc                  lfa_BLKWRITE
                  0x0018e8                  BLKWRITE
                  0x0018f2                  lfa_BLKTOADR
                  0x0018fc                  BLKTOADR
                  0x001906                  lfa_BLKVALIDQ
                  0x001914                  BLKVALIDQ
                  0x00191e                  lfa_XRAM
                  0x001926                  XRAM
                  0x001932                  lfa_EEPROM
                  0x00193c                  EEPROM
                  0x001948                  KBD_INIT
                  0x00194a                  KBD_RESET
                  0x00194c                  LCEKEYQ
                  0x00194e                  PEEK_KEY
                  0x001950                  GETKEY
                  0x001952                  LCEKEY
                  0x001954                  LCFILTER
                  0x001956                  lfa_QPRTCHAR
                  0x001962                  QPRTCHAR
                  0x001982                  LCKEYQ
                  0x0019a2                  LCKEY
                  0x0019b6                  CPOS_STORE
                  0x0019b8                  CPOS_FETCH
                  0x0019ba                  COLON1
                  0x0019bc                  INC_COLON
                  0x0019be                  DEC_COLON
                  0x0019c0                  INC_LINE
                  0x0019c2                  VTINIT
                  0x0019d6                  lfa_XON
                  0x0019dc                  XON
                  0x0019e6                  lfa_XOFF
                  0x0019ee                  XOFF
                  0x001a02                  EXPECT_TILDE
                  0x001a28                  ARROWS
                  0x001a82                  ESCTOVK
                  0x001ac8                  VTEKEY
                  0x001b32                  VTFILTER
                  0x001b60                  VTKEYQ
                  0x001b7e                  VTKEY
                  0x001b8a                  VTTYPE
                  0x001ba2                  VTSNDARG
                  0x001bae                  ESCLBRAC
                  0x001bbe                  VTUP
                  0x001be0                  VTDOWN
                  0x001c02                  VTRIGHT
                  0x001c20                  VTLEFT
                  0x001c46                  VTHOME
                  0x001c50                  VTEND
                  0x001c62                  VTTOP
                  0x001c6e                  VTBOTTOM
                  0x001c7c                  VTTAB
                  0x001c98                  VTATXY
                  0x001cc2                  VTDELEOL
                  0x001cd0                  VTCLS
                  0x001ce2                  VTDEL
                  0x001cf4                  VTINSERT
                  0x001d28                  VTBACKDEL
                  0x001d52                  VTDELLN
                  0x001d6c                  VTRMVLN
                  0x001d7a                  VTINSRTLN
                  0x001d8c                  VTWHITELN
                  0x001dc0                  lfa_VTPRTINV
                  0x001dcc                  VTPRTINV
                  0x001dde                  VTDSR
                  0x001dfa                  VTGETP
                  0x001e2c                  ESCSEQQ
                  0x001e4e                  VTXYQ
                  0x001e84                  CPOS_SYNC
                  0x001e8c                  VTCRLF
                  0x001ec4                  VTPUTC
                  0x001ee8                  VTBSLASHW
                  0x001f02                  lfa_LCCONS
                  0x001f0c                  LCCONS
                  0x001f44                  lfa_VTCONS
                  0x001f4e                  VTCONS
                  0x001f86                  lfa_SYSCONS
                  0x001f90                  SYSCONS
                  0x001f94                  lfa_LOCAL
                  0x001f9c                  LOCAL
                  0x001fa6                  lfa_REMOTE
                  0x001fb0                  REMOTE
                  0x001fba                  CONSOLE
                  0x001fc2                  lfa_ISLOCAL
                  0x001fcc                  ISLOCAL
                  0x001fd8                  CONSEXEC
                  0x001fe4                  lfa_KEY
                  0x001fea                  KEY
                  0x001ff4                  lfa_KEYQ
                  0x001ffc                  KEYQ
                  0x002006                  lfa_EKEY
                  0x00200e                  EKEY
                  0x002018                  lfa_EKEYQ
                  0x002020                  EKEYQ
                  0x00202a                  lfa_EMIT
                  0x002032                  EMIT
                  0x00203c                  lfa_EMITQ
                  0x002044                  EMITQ
                  0x00204e                  lfa_ATXY
                  0x002056                  ATXY
                  0x002060                  lfa_SPACE
                  0x002068                  SPACE
                  0x002072                  lfa_SPACES
                  0x00207c                  SPACES
                  0x00209c                  lfa_DELLN
                  0x0020a4                  DELLN
                  0x0020ae                  lfa_RMVLN
                  0x0020b6                  RMVLN
                  0x0020c0                  lfa_INSRTLN
                  0x0020ca                  INSRTLN
                  0x0020d4                  lfa_TYPE
                  0x0020dc                  TYPE
                  0x0020f8                  lfa_ETYPE
                  0x002100                  ETYPE
                  0x00211c                  lfa_DELETE
                  0x002126                  DELETE
                  0x002130                  lfa_BACKDEL
                  0x00213a                  BACKDEL
                  0x002144                  lfa_DELEOL
                  0x00214e                  DELEOL
                  0x002158                  lfa_CR
                  0x00215e                  CR
                  0x002168                  lfa_CLS
                  0x00216e                  CLS
                  0x002178                  lfa_XYQ
                  0x00217e                  XYQ
                  0x002188                  lfa_BSLASHW
                  0x00218e                  BSLASHW
                  0x002198                  lfa_WHITELN
                  0x0021a2                  WHITELN
                  0x0021ac                  lfa_WRAP
                  0x0021b4                  WRAP
                  0x0021b6                  lfa_QWRAP
                  0x0021be                  QWRAP
                  0x0021c0                  lfa_SCROLL
                  0x0021ca                  SCROLL
                  0x0021cc                  lfa_TAB
                  0x0021d2                  TAB
                  0x0021dc                  lfa_UP
                  0x0021e2                  UP
                  0x0021ec                  lfa_DOWN
                  0x0021f4                  DOWN
                  0x0021fe                  lfa_LEFT
                  0x002206                  LEFT
                  0x002210                  lfa_RIGHT
                  0x002218                  RIGHT
                  0x002222                  lfa_HOME
                  0x00222a                  HOME
                  0x002234                  lfa_END
                  0x00223a                  END
                  0x002244                  lfa_TOP
                  0x00224a                  TOP
                  0x002254                  lfa_BOTTOM
                  0x00225e                  BOTTOM
                  0x002268                  lfa_FBUFFER
                  0x002272                  FBUFFER
                  0x002284                  lfa_FFETCH
                  0x00228a                  FFETCH
                  0x00228c                  lfa_FCFETCHL
                  0x002294                  FCFETCHL
                  0x002296                  lfa_FCFETCHH
                  0x00229e                  FCFETCHH
                  0x0022a0                  lfa_IFETCH
                  0x0022a6                  IFETCH
                  0x0022a8                  lfa_ICFETCH
                  0x0022ae                  ICFETCH
                  0x0022b0                  FADDR
                  0x0022b2                  FNEXT
                  0x0022b4                  WRITE_LATCH
                  0x0022b6                  FLASH_OP
                  0x0022b8                  lfa_QFLIMITS
                  0x0022c4                  QFLIMITS
                  0x0022ee                  lfa_ROWTOFADR
                  0x0022fa                  ROWTOFADR
                  0x002304                  lfa_FERASE
                  0x00230e                  FERASE
                  0x00233a                  lfa_RAMTOFLASH
                  0x002346                  RAMTOFLASH
                  0x00237a                  lfa_FLASHTORAM
                  0x002386                  FLASHTORAM
                  0x0023ce                  IMGHEAD
                  0x0023d0                  MAGIC
                  0x0023d2                  IMGROW
                  0x0023d4                  IMGSIGN
                  0x0023de                  IMGLATST
                  0x0023e8                  IMGDP
                  0x0023f2                  IMGSIZE
                  0x0023fc                  SETHEADER
                  0x00241e                  IMGADDR
                  0x00242a                  lfa_QIMG
                  0x002432                  QIMG
                  0x002448                  QSIZE
                  0x002450                  ERASEROWS
                  0x002482                  lfa_IMGSAVE
                  0x00248c                  IMGSAVE
                  0x0024aa                  lfa_IMGLOAD
                  0x0024b4                  IMGLOAD
                  0x0024f4                  READCSD
                  0x0024f6                  READCID
                  0x0024f8                  lfa_CARDINFO
                  0x002504                  CARDINFO
                  0x002614                  SDCR
                  0x002616                  lfa_SDCINIT
                  0x002622                  SDCINIT
                  0x002624                  lfa_SEGMENT
                  0x00262e                  SEGMENT
                  0x002630                  lfa_SEGMENTQ
                  0x00263c                  SEGMENTQ
                  0x00263e                  lfa_QSDC
                  0x002646                  QSDC
                  0x002648                  lfa_QSDCOK
                  0x002652                  QSDCOK
                  0x002660                  lfa_SDCREAD
                  0x00266a                  SDCREAD
                  0x00266c                  lfa_SDCWRITE
                  0x002678                  SDCWRITE
                  0x00267a                  lfa_SDCBLOCKS
                  0x002688                  SDCBLOCKS
                  0x00268a                  lfa_SDCSEGMENTS
                  0x00269a                  SDCSEGMENTS
                  0x00269c                  SDCVALIDQ
                  0x0026a4                  SDCBLKTOADR
                  0x0026b8                  SDCBLKREAD
                  0x0026e6                  SDCBLKWRITE
                  0x002712                  lfa_SDCARD
                  0x00271c                  SDCARD
                  0x002728                  lfa_BL
                  0x00272e                  BL
                  0x002730                  lfa_TOCHAR
                  0x002738                  TOCHAR
                  0x00273a                  lfa_CHARS
                  0x002742                  CHARS
                  0x00274c                  lfa_CHARPLUS
                  0x002754                  CHARPLUS
                  0x00275e                  lfa_CHAR
                  0x002766                  CHAR
                  0x00278c                  lfa_COMPILECHAR
                  0x002796                  COMPILECHAR
                  0x0027a4                  lfa_FILL
                  0x0027ac                  FILL
                  0x0027ae                  lfa_MINUSTRAILING
                  0x0027ba                  MINUSTRAILING
                  0x0027bc                  lfa_SLASHSTRING
                  0x0027c6                  SLASHSTRING
                  0x0027d6                  lfa_UPPER
                  0x0027de                  UPPER
                  0x0027e0                  lfa_SCAN
                  0x0027e8                  SCAN
                  0x0027ea                  lfa_SKIP
                  0x0027f2                  SKIP
                  0x0027f4                  lfa_GETLINE
                  0x0027fe                  GETLINE
                  0x002812                  lfa_MOVE
                  0x00281a                  MOVE
                  0x00281c                  lfa_CMOVE
                  0x002824                  CMOVE
                  0x002826                  lfa_CMOVETO
                  0x002830                  CMOVETO
                  0x002832                  lfa_ECFETCHPLUS
                  0x00283a                  ECFETCHPLUS
                  0x002848                  lfa_CFETCHPLUS
                  0x00284e                  CFETCHPLUS
                  0x00285c                  lfa_CSTRTORAM
                  0x002868                  CSTRTORAM
                  0x002890                  lfa_SEQUAL
                  0x002896                  SEQUAL
                  0x0028ce                  lfa_BLANK
                  0x0028d6                  BLANK
                  0x0028d8                  lfa_COMPARE
                  0x0028e2                  COMPARE
                  0x002942                  lfa_SEARCH
                  0x00294c                  SEARCH
                  0x0029a6                  lfa_SLITERAL
                  0x0029b2                  SLITERAL
                  0x0029c6                  lfa_LPAREN
                  0x0029ca                  LPAREN
                  0x0029d6                  lfa_COMMENT
                  0x0029da                  COMMENT
                  0x0029f6                  lfa_DOTPAREN
                  0x0029fc                  DOTPAREN
                  0x002a08                  lfa_DIGIT
                  0x002a10                  DIGIT
                  0x002a2a                  lfa_EXTRACT
                  0x002a34                  EXTRACT
                  0x002a3e                  lfa_LTSHARP
                  0x002a44                  LTSHARP
                  0x002a54                  lfa_HOLD
                  0x002a5c                  HOLD
                  0x002a6e                  lfa_SHARP
                  0x002a72                  SHARP
                  0x002a7e                  lfa_SHARPS
                  0x002a84                  SHARPS
                  0x002a92                  lfa_SIGN
                  0x002a9a                  SIGN
                  0x002aaa                  lfa_SHARPGT
                  0x002ab0                  SHARPGT
                  0x002ac6                  lfa_STR
                  0x002acc                  STR
                  0x002ae0                  lfa_COLFILL
                  0x002aea                  COLFILL
                  0x002b00                  lfa_DOTR
                  0x002b06                  DOTR
                  0x002b12                  lfa_UDOTR
                  0x002b18                  UDOTR
                  0x002b26                  lfa_UDOT
                  0x002b2c                  UDOT
                  0x002b36                  lfa_DOT
                  0x002b3a                  DOT
                  0x002b50                  lfa_QUESTION
                  0x002b54                  QUESTION
                  0x002b62                  lfa_CQUESTION
                  0x002b68                  CQUESTION
                  0x002b70                  lfa_UDDOT
                  0x002b76                  UDDOT
                  0x002b84                  lfa_DDOT
                  0x002b8a                  DDOT
                  0x002ba2                  lfa_DDOTR
                  0x002ba8                  DDOTR
                  0x002bb8                  lfa_UDDOTR
                  0x002bc0                  UDDOTR
                  0x002bd4                  lfa_DECIMALQ
                  0x002be0                  DECIMALQ
                  0x002bfe                  lfa_TOBASE10
                  0x002c08                  TOBASE10
                  0x002c1c                  lfa_QDIGIT
                  0x002c26                  QDIGIT
                  0x002c6e                  lfa_QDOUBLE
                  0x002c78                  QDOUBLE
                  0x002cae                  lfa_TONUMBER
                  0x002cb8                  TONUMBER
                  0x002d18                  lfa_QSIGN
                  0x002d20                  QSIGN
                  0x002d44                  lfa_QBASE
                  0x002d4c                  QBASE
                  0x002da2                  lfa_QQUOTEDCHAR
                  0x002db2                  QQUOTEDCHAR
                  0x002e06                  lfa_QNUMBER
                  0x002e10                  QNUMBER
                  0x002e72                  lfa_HEAP_INIT
                  0x002e7e                  HEAP_INIT
                  0x002e80                  lfa_HEAPSIZE
                  0x002e8c                  HEAPSIZE
                  0x002e8e                  lfa_HEAPFREE
                  0x002e9a                  HEAPFREE
                  0x002e9c                  FREE_BYTES_STORE
                  0x002e9e                  FREELIST
                  0x002ea0                  USEDLIST
                  0x002ea2                  lfa_BSIZEFETCH
                  0x002eac                  BSIZEFETCH
                  0x002eb8                  BSIZESTORE
                  0x002ec4                  NLNKFETCH
                  0x002ed0                  PLNKFETCH
                  0x002edc                  NLNKSTORE
                  0x002ee8                  PLNKSTORE
                  0x002ef4                  UNLINK
                  0x002f42                  PREPEND
                  0x002f5c                  QFIT
                  0x002f66                  SMALLBLK
                  0x002f8e                  SMALLEST
                  0x002fba                  CUT
                  0x003008                  lfa_MALLOC
                  0x003012                  MALLOC
                  0x003042                  QINLIST
                  0x003060                  lfa_FREE
                  0x003068                  FREE
                  0x0030ac                  lfa_BUFFERCOLON
                  0x0030b6                  BUFFERCOLON
                  0x0030c8                  lfa_BLK
                  0x0030ce                  BLK
                  0x0030d0                  lfa_SCR
                  0x0030d6                  SCR
                  0x0030d8                  lfa_BLKDEV
                  0x0030e2                  BLKDEV
                  0x0030e4                  BUFARRAY
                  0x0030e6                  STRUCADR
                  0x0030f4                  DATA
                  0x003100                  BLOCK_INIT
                  0x003124                  OWNQ
                  0x00314c                  BUFFEREDQ
                  0x00317a                  NOTUSED
                  0x0031a6                  OLDEST
                  0x0031e4                  UPDATEDFETCH
                  0x0031f0                  BLKDEVFETCH
                  0x0031f8                  DEVADR
                  0x003212                  FIELDS
                  0x003232                  UPDATE
                  0x00325a                  NOUPDATE
                  0x00326a                  DATAOUT
                  0x00328c                  TODATA
                  0x0032a2                  ASSIGN
                  0x0032ee                  lfa_BUFFER
                  0x0032f8                  BUFFER
                  0x00330c                  lfa_BLOCK
                  0x003314                  BLOCK
                  0x003320                  lfa_TEXTBLOCK
                  0x00332e                  TEXTBLOCK
                  0x00337a                  lfa_LOAD
                  0x003382                  LOAD
                  0x00339c                  lfa_SAVEBUFFERS
                  0x0033ac                  SAVEBUFFERS
                  0x0033c4                  lfa_EMPTYBUFFERS
                  0x0033d4                  EMPTYBUFFERS
                  0x0033fc                  lfa_FLUSH
                  0x003404                  FLUSH
                  0x00340c                  lfa_LIST
                  0x003414                  LIST
                  0x003456                  lfa_THRU
                  0x00345e                  THRU
                  0x003470                  lfa_RPBREAK
                  0x00347a                  RPBREAK
                  0x00347e                  lfa_DBGEN
                  0x003486                  DBGEN
                  0x00348a                  lfa_QDSP
                  0x003492                  QDSP
                  0x003494                  lfa_DOTS
                  0x00349a                  DOTS
                  0x0034c4                  lfa_DOTRTN
                  0x0034cc                  DOTRTN
                  0x0034fa                  lfa_DUMP
                  0x003502                  DUMP
                  0x00355a                  lfa_DEBUG
                  0x003562                  DEBUG
                  0x00356a                  lfa_BREAK
                  0x003572                  BREAK
                  0x0035a4                  lfa_RESUME
                  0x0035ae                  RESUME
                  0x0035ce                  EDITLN
                  0x0035d0                  TEXTEND
                  0x00362c                  KCASE
                  0x00363e                  lfa_SAVELINE
                  0x00364a                  SAVELINE
                  0x00365a                  lfa_RESTORELINE
                  0x003668                  RESTORELINE
                  0x00367c                  EDWHITELN
                  0x00368c                  lfa_PROMPT
                  0x003696                  PROMPT
                  0x0036a8                  lfa_MSGLINE
                  0x0036b2                  MSGLINE
                  0x0036f6                  SAVEFAILED
                  0x00371e                  SAVESUCCESS
                  0x003738                  NEXTBLOCK
                  0x00375e                  PREVBLOCK
                  0x00377c                  BLOCKQ
                  0x0037e4                  OPENBLOCK
                  0x0037f4                  COPYBLOCK
                  0x003812                  EDDEL
                  0x003820                  EDINSERTBL
                  0x003842                  EDEND
                  0x003852                  EDHOME
                  0x003860                  EDUP
                  0x00386e                  EDDOWN
                  0x00388a                  EDCRLF
                  0x0038a2                  LASTPOS
                  0x0038bc                  EDPUTC
                  0x0038d6                  EDKEY
                  0x003916                  EDBACKDEL
                  0x00392c                  EDLEFT
                  0x00393a                  EDRIGHT
                  0x003948                  EDTOP
                  0x003956                  lfa_SCRSIZE
                  0x003962                  SCRSIZE
                  0x003990                  lfa_BLKTOSCR
                  0x00399a                  BLKTOSCR
                  0x0039e2                  lfa_SCRTOBLK
                  0x0039ec                  SCRTOBLK
                  0x003a48                  lfa_SAVESCREEN
                  0x003a56                  SAVESCREEN
                  0x003a6a                  EDTAB
                  0x003a7a                  DELLN23
                  0x003aa4                  STATUSLN
                  0x003afe                  EDATXY
                  0x003b12                  EDBSLASHW
                  0x003b26                  EDINSRTLN
                  0x003b34                  EDDELLN
                  0x003b42                  EDRMVLN
                  0x003b50                  EDDELEOL
                  0x003b5e                  EDCLS
                  0x003b6c                  lfa_BLKED
                  0x003b74                  BLKED
                  0x003d20                  INFLOOP
                  0x003d22                  QAUTORUN
                  0x003d36                  QCOLD
                  0x003d42                  HARDWARE_INIT
                  0x003d60                  TICKS_INIT
                  0x003d62                  SET_CLOCK
                  0x003d64                  CLR_LOW_RAM
                  0x003d66                  CLR_RAM
                  0x003d68                  IO_LOCK
                  0x003d6a                  VARS_INIT
                  0x003d6c                  lfa_REBOOT
                  0x003d76                  REBOOT
                  0x003d78                  lfa_TICKS
                  0x003d80                  TICKS
                  0x003d82                  lfa_USEC
                  0x003d8a                  USEC
                  0x003d8c                  lfa_MS
                  0x003d92                  MS
                  0x003dbc                  lfa_LFSR
                  0x003dc4                  LFSR
                  0x003dc6                  lfa_RAND
                  0x003dce                  RAND
                  0x003dd0                  lfa_SRAND
                  0x003dd8                  SRAND
                  0x003dda                  lfa_CLEAR
                  0x003de2                  CLEAR
                  0x003df4                  lfa_UNUSED
                  0x003dfe                  UNUSED
                  0x003e08                  SOUND_INIT
                  0x003e0a                  lfa_TONE
                  0x003e12                  TONE
                  0x003e14                  _font
                  0x004214                  _version
                  0x004221                  _math_error
                  0x004237                  _user_aborted
                  0x004250                  _stack_reset
                  0x004263                  _unknown_reset
                  0x0042aa                  ENTER
                  0x0042b4                  DOUSER
                  0x0042c0                  DOVAR
                  0x0042ca                  DOCONST
                  0x0042d4                  code_EXIT
                  0x0042dc                  code_LIT
                  0x0042e6                  code_CLIT
                  0x0042f2                  code_BRANCH
                  0x0042fa                  code_TBRANCH
                  0x004308                  code_ZBRANCH
                  0x004316                  code_DODO
                  0x004328                  code_DOQDO
                  0x00433a                  code_DOLOOP
                  0x004354                  code_DOPLOOP
                  0x004372                  code_VERSION
                  0x00437c                  code_R0
                  0x004386                  code_S0
                  0x004390                  code_RAMEND
                  0x00439a                  code_ULIMIT
                  0x0043a4                  code_TRUE
                  0x0043ae                  code_FALSE
                  0x0043b8                  code_DP0
                  0x0043c2                  code_CELL
                  0x0043cc                  code_DUP
                  0x0043d4                  code_TWODUP
                  0x0043e0                  code_QDUP
                  0x0043ec                  code_DROP
                  0x0043f4                  code_TWODROP
                  0x0043fe                  code_RDROP
                  0x004406                  code_SWAP
                  0x004412                  code_TWOSWAP
                  0x004426                  code_ROT
                  0x004438                  code_NROT
                  0x004448                  code_OVER
                  0x004452                  code_TWOOVER
                  0x004460                  code_NIP
                  0x004468                  code_TUCK
                  0x004474                  code_TOR
                  0x00447e                  code_RFROM
                  0x004488                  code_IPFETCH
                  0x004492                  code_DEPTH
                  0x0044a0                  code_PICK
                  0x0044ae                  code_RFETCH
                  0x0044b8                  code_SPFETCH
                  0x0044c4                  code_SPSTORE
                  0x0044cc                  code_RPFETCH
                  0x0044d6                  code_RPSTORE
                  0x0044e0                  code_TOCSTK
                  0x0044ee                  code_CSTKFROM
                  0x0044fc                  code_FETCH
                  0x004504                  code_CFETCH
                  0x00450e                  code_TWOFETCH
                  0x00451a                  code_BIDFETCH
                  0x004538                  code_TBLFETCH
                  0x004548                  code_TBLSTORE
                  0x00455c                  code_STORE
                  0x004566                  code_CSTORE
                  0x004572                  code_TWOSTORE
                  0x00457e                  code_CELLPLUS
                  0x004586                  code_CELLS
                  0x004590                  code_DOI
                  0x00459a                  code_DOL
                  0x0045a4                  code_DOJ
                  0x0045ae                  code_UNLOOP
                  0x0045b8                  code_EXECUTE
                  0x0045c0                  code_FETCHEXEC
                  0x0045c4                  code_VEXEC
                  0x0045ce                  code_CALL
                  0x0045de                  code_IMMED
                  0x0045e8                  code_HIDDEN
                  0x0045f2                  code_NMARK
                  0x0045fc                  code_LENMASK
                  0x004606                  code_TIBSIZE
                  0x004610                  code_PADSIZE
                  0x00461a                  code_PARSENAME
                  0x004674                  code_FIND
                  0x0046c4                  code_ALIGNED
                  0x0046ce                  code_SOURCE
                  0x0046dc                  code_SRCSTORE
                  0x0046ea                  FETCH_EXEC
                  0x0046f4                  code_EFETCH
                  0x004702                  code_ECFETCH
                  0x004712                  code_ETBLFETCH
                  0x004728                  code_MSB
                  0x004732                  code_MAXINT
                  0x00473c                  code_MININT
                  0x004746                  code_PLUS
                  0x00474e                  code_MINUS
                  0x004758                  code_ONEPLUS
                  0x004760                  code_TWOPLUS
                  0x004768                  code_ONEMINUS
                  0x004770                  code_TWOMINUS
                  0x004778                  code_TWOSTAR
                  0x004780                  code_TWOSLASH
                  0x004788                  code_LSHIFT
                  0x0047a4                  code_RSHIFT
                  0x0047c0                  code_PLUSSTORE
                  0x0047ce                  code_DPLUS
                  0x0047e0                  code_DMINUS
                  0x0047f4                  code_MPLUS
                  0x004808                  code_STAR
                  0x004812                  code_MSTAR
                  0x00481e                  code_UMSTAR
                  0x00482a                  code_UDSTAR
                  0x00483e                  code_SLASH
                  0x00484c                  code_MOD
                  0x00485a                  code_STARSLASH
                  0x00486c                  code_STARSLASHMOD
                  0x004880                  code_SLASHMOD
                  0x004890                  code_UMSLASHMOD
                  0x0048a2                  code_UDSLASHMOD
                  0x0048be                  code_MAX
                  0x0048cc                  code_MIN
                  0x0048da                  code_UMAX
                  0x0048e8                  code_UMIN
                  0x0048f6                  code_WITHIN
                  0x004904                  code_EVEN
                  0x004912                  code_ODD
                  0x004920                  code_ABS
                  0x00492a                  code_DABS
                  0x004940                  code_STOD
                  0x004950                  code_QNEGATE
                  0x00495e                  code_UDREL
                  0x004984                  code_NEGATE
                  0x00498c                  code_DNEGATE
                  0x00499c                  code_INVERT
                  0x0049a4                  code_DINVERT
                  0x0049ae                  code_BITMASK
                  0x0049be                  code_AND
                  0x0049c6                  code_OR
                  0x0049ce                  code_XOR
                  0x0049d6                  code_NOT
                  0x0049e6                  code_ZEROEQ
                  0x0049f0                  code_ZERODIFF
                  0x004a00                  code_ZEROLT
                  0x004a0c                  code_ZEROGT
                  0x004a1c                  code_EQUAL
                  0x004a2c                  code_NOTEQ
                  0x004a3c                  code_LESS
                  0x004a4c                  code_GREATER
                  0x004a5c                  code_ULESS
                  0x004a6c                  code_UGREATER
                  0x004a7c                  code_SCRBUF
                  0x004a86                  code_HTAB
                  0x004a90                  code_TVOUT_INIT
                  0x004af8                  code_VIDEO
                  0x004b0a                  code_LCBSLASHW
                  0x004b1c                  code_CURENBL
                  0x004b38                  code_LCCLS
                  0x004b4e                  code_SCRLUP
                  0x004b58                  code_SCRLDN
                  0x004b62                  code_GETX
                  0x004b70                  code_GETY
                  0x004b7e                  code_SETX
                  0x004ba4                  code_SETY
                  0x004bca                  code_CURADR
                  0x004be0                  code_SCRCHAR
                  0x004c08                  code_CHRTOSCR
                  0x004c34                  code_LCLEFT
                  0x004c4c                  code_LCRIGHT
                  0x004c66                  code_LCHOME
                  0x004c7a                  code_LCUP
                  0x004c92                  code_LCDOWN
                  0x004cac                  code_TGLCHAR
                  0x004cc2                  code_PUTC
                  0x004d0e                  code_LCCRLF
                  0x004d32                  code_LCDELLN
                  0x004d54                  code_LCEMITQ
                  0x004d5e                  code_SERIAL_INIT
                  0x004d8a                  code_SERENBL
                  0x004da0                  code_B2400
                  0x004daa                  code_B4800
                  0x004db4                  code_B9600
                  0x004dbe                  code_B19200
                  0x004dc8                  code_B38400
                  0x004dd2                  code_B57600
                  0x004ddc                  code_B115200
                  0x004de6                  code_BAUD
                  0x004df8                  code_SPUTC
                  0x004e0c                  code_SGETC
                  0x004e44                  code_SREADYQ
                  0x004e52                  code_SGETCQ
                  0x004e60                  code_STORE_INIT
                  0x004ede                  code_RAMTOXR
                  0x004f1e                  code_XRTORAM
                  0x004f58                  code_XBLKCOUNT
                  0x004f62                  code_QWIP
                  0x004f90                  code_RAMTOEE
                  0x004fee                  code_EETORAM
                  0x00502c                  code_EPAGE
                  0x005036                  code_ESECTOR
                  0x005040                  code_EALL
                  0x00504a                  code_EERASE
                  0x0050ac                  code_EEBLKCOUNT
                  0x0050b6                  code_KBD_INIT
                  0x0050e6                  code_KBD_RESET
                  0x005100                  code_LCEKEYQ
                  0x00510e                  code_PEEK_KEY
                  0x00511e                  code_GETKEY
                  0x005134                  code_LCEKEY
                  0x005158                  code_LCFILTER
                  0x005182                  code_CPOS_STORE
                  0x005194                  code_CPOS_FETCH
                  0x0051a6                  code_COLON1
                  0x0051b0                  code_INC_COLON
                  0x0051be                  code_DEC_COLON
                  0x0051cc                  code_INC_LINE
                  0x0051da                  code_WRAP
                  0x0051ec                  code_QWRAP
                  0x0051fa                  code_SCROLL
                  0x00520c                  code_FFETCH
                  0x005226                  code_FCFETCHL
                  0x005238                  code_FCFETCHH
                  0x00524a                  code_IFETCH
                  0x005264                  code_ICFETCH
                  0x005286                  code_FADDR
                  0x005294                  code_FNEXT
                  0x0052a2                  code_WRITE_LATCH
                  0x0052ca                  code_FLASH_OP
                  0x0052f4                  code_IMGHEAD
                  0x0052fe                  code_MAGIC
                  0x005308                  code_IMGROW
                  0x005312                  code_READCSD
                  0x005326                  code_READCID
                  0x00533a                  code_SDCR
                  0x005344                  code_SDCINIT
                  0x005420                  code_SEGMENT
                  0x005432                  code_SEGMENTQ
                  0x00543c                  code_QSDC
                  0x005446                  code_SDCREAD
                  0x005492                  code_SDCWRITE
                  0x005502                  code_SDCBLOCKS
                  0x005510                  code_SDCSEGMENTS
                  0x00551a                  code_BL
                  0x005524                  code_TOCHAR
                  0x005536                  code_FILL
                  0x00554e                  code_MINUSTRAILING
                  0x00556e                  code_UPPER
                  0x005596                  code_SCAN
                  0x0055ba                  code_SKIP
                  0x0055dc                  code_MOVE
                  0x0055e4                  code_CMOVE
                  0x005604                  code_CMOVETO
                  0x005628                  code_BLANK
                  0x005640                  code_HEAP_INIT
                  0x00565a                  code_HEAPSIZE
                  0x005664                  code_HEAPFREE
                  0x00566e                  code_FREE_BYTES_STORE
                  0x005678                  code_FREELIST
                  0x005682                  code_USEDLIST
                  0x00568c                  code_BLK
                  0x005696                  code_SCR
                  0x0056a0                  code_BLKDEV
                  0x0056aa                  code_BUFARRAY
                  0x0056b4                  code_QDSP
                  0x0056d2                  code_EDITLN
                  0x0056dc                  code_INFLOOP
                  0x0056de                  code_TICKS_INIT
                  0x0056fa                  code_SET_CLOCK
                  0x00570a                  code_CLR_LOW_RAM
                  0x005716                  code_CLR_RAM
                  0x005722                  code_IO_LOCK
                  0x00572a                  code_VARS_INIT
                  0x005744                  code_REBOOT
                  0x005746                  code_TICKS
                  0x005750                  code_USEC
                  0x00576a                  code_LFSR
                  0x005782                  code_RAND
                  0x0057b2                  code_SRAND
                  0x0057c2                  code_SOUND_INIT
                  0x0057e0                  code_TONE
                  0x005800                  cursor_blink
                  0x005810                  toggle_char
                  0x005834                  cursor_enable
                  0x005848                  cursor_disable
                  0x005856                  scroll_up
                  0x00588a                  scroll_down
                  0x005b72                  _code_end
                  0x007800                  vars_count
                  0x0557fa                  __FGS.sec

External Symbols in Program Memory (by name):

                  0x00095e                  ABORT
                  0x0009a0                  ABORTQUOTE
                  0x001338                  ABS
                  0x0007aa                  ACCEPT
                  0x00118a                  ACTIONOF
                  0x000700                  ADRTOIN
                  0x000e3a                  AGAIN
                  0x000a44                  ALIGN
                  0x000a68                  ALIGNED
                  0x000ba8                  ALLOT
                  0x001444                  AND
                  0x001a28                  ARROWS
                  0x0032a2                  ASSIGN
                  0x002056                  ATXY
                  0x00177a                  B115200
                  0x001756                  B19200
                  0x001736                  B2400
                  0x001762                  B38400
                  0x001740                  B4800
                  0x00176e                  B57600
                  0x00174a                  B9600
                  0x00213a                  BACKDEL
                  0x000c20                  BACKJUMP
                  0x000448                  BASE
                  0x001784                  BAUD
                  0x000e2a                  BEGIN
                  0x000576                  BIDFETCH
                  0x00143c                  BITMASK
                  0x00272e                  BL
                  0x0028d6                  BLANK
                  0x0030ce                  BLK
                  0x0030e2                  BLKDEV
                  0x0031f0                  BLKDEVFETCH
                  0x003b74                  BLKED
                  0x0018d2                  BLKREAD
                  0x0018fc                  BLKTOADR
                  0x00399a                  BLKTOSCR
                  0x001914                  BLKVALIDQ
                  0x0018e8                  BLKWRITE
                  0x003314                  BLOCK
                  0x00377c                  BLOCKQ
                  0x003100                  BLOCK_INIT
                  0x00225e                  BOTTOM
                  0x0003ca                  BRANCH
                  0x003572                  BREAK
                  0x002eac                  BSIZEFETCH
                  0x002eb8                  BSIZESTORE
                  0x00218e                  BSLASHW
                  0x0030e4                  BUFARRAY
                  0x0032f8                  BUFFER
                  0x0030b6                  BUFFERCOLON
                  0x00314c                  BUFFEREDQ
                  0x000642                  CALL
                  0x002504                  CARDINFO
                  0x000eca                  CASE
                  0x000bc8                  CCOMMA
                  0x000434                  CELL
                  0x0005f0                  CELLPLUS
                  0x0005fa                  CELLS
                  0x000ada                  CFATONFA
                  0x000c46                  CFA_COMMA
                  0x000564                  CFETCH
                  0x00284e                  CFETCHPLUS
                  0x002766                  CHAR
                  0x002754                  CHARPLUS
                  0x002742                  CHARS
                  0x0015a0                  CHRTOSCR
                  0x003de2                  CLEAR
                  0x0009b2                  CLIP
                  0x0003c8                  CLIT
                  0x003d64                  CLR_LOW_RAM
                  0x003d66                  CLR_RAM
                  0x00216e                  CLS
                  0x002824                  CMOVE
                  0x002830                  CMOVETO
                  0x002aea                  COLFILL
                  0x00105e                  COLON
                  0x0019ba                  COLON1
                  0x000f92                  COLON_NO_NAME
                  0x000bb4                  COMMA
                  0x0029da                  COMMENT
                  0x0028e2                  COMPARE
                  0x002796                  COMPILECHAR
                  0x000c0c                  COMPILETICK
                  0x001fd8                  CONSEXEC
                  0x001fba                  CONSOLE
                  0x0010f8                  CONSTANT
                  0x0037f4                  COPYBLOCK
                  0x000872                  COUNT
                  0x0019b8                  CPOS_FETCH
                  0x0019b6                  CPOS_STORE
                  0x001e84                  CPOS_SYNC
                  0x002b68                  CQUESTION
                  0x000d40                  CQUOTE
                  0x00215e                  CR
                  0x001078                  CREATE
                  0x000556                  CSTKFROM
                  0x000598                  CSTORE
                  0x002868                  CSTRTORAM
                  0x001576                  CURADR
                  0x00150a                  CURENBL
                  0x002fba                  CUT
                  0x001342                  DABS
                  0x0030f4                  DATA
                  0x00326a                  DATAOUT
                  0x003486                  DBGEN
                  0x002b8a                  DDOT
                  0x002ba8                  DDOTR
                  0x003562                  DEBUG
                  0x0011ea                  DECIMAL
                  0x002be0                  DECIMALQ
                  0x0019be                  DEC_COLON
                  0x00113c                  DEFER
                  0x00112c                  DEFEREXEC
                  0x001166                  DEFERFETCH
                  0x001154                  DEFERSTORE
                  0x00214e                  DELEOL
                  0x002126                  DELETE
                  0x0020a4                  DELLN
                  0x003a7a                  DELLN23
                  0x000510                  DEPTH
                  0x0031f8                  DEVADR
                  0x0018c0                  DEVID
                  0x002a10                  DIGIT
                  0x001430                  DINVERT
                  0x001260                  DMINUS
                  0x001418                  DNEGATE
                  0x000d88                  DO
                  0x0042ca                  DOCONST
                  0x0003d0                  DODO
                  0x0010aa                  DOESTO
                  0x000600                  DOI
                  0x00060c                  DOJ
                  0x000606                  DOL
                  0x0003d4                  DOLOOP
                  0x0003d6                  DOPLOOP
                  0x0003d2                  DOQDO
                  0x000ce0                  DOSTR
                  0x002b3a                  DOT
                  0x0029fc                  DOTPAREN
                  0x000d52                  DOTQUOTE
                  0x002b06                  DOTR
                  0x0034cc                  DOTRTN
                  0x00349a                  DOTS
                  0x000d04                  DOTSTR
                  0x0042b4                  DOUSER
                  0x0042c0                  DOVAR
                  0x0021f4                  DOWN
                  0x00043c                  DP
                  0x00042a                  DP0
                  0x001258                  DPLUS
                  0x00048e                  DROP
                  0x003502                  DUMP
                  0x000470                  DUP
                  0x00186c                  EALL
                  0x0011a2                  ECFETCH
                  0x00283a                  ECFETCHPLUS
                  0x003afe                  EDATXY
                  0x003916                  EDBACKDEL
                  0x003b12                  EDBSLASHW
                  0x003b5e                  EDCLS
                  0x00388a                  EDCRLF
                  0x003812                  EDDEL
                  0x003b50                  EDDELEOL
                  0x003b34                  EDDELLN
                  0x00386e                  EDDOWN
                  0x003842                  EDEND
                  0x003852                  EDHOME
                  0x003820                  EDINSERTBL
                  0x003b26                  EDINSRTLN
                  0x0035ce                  EDITLN
                  0x0038d6                  EDKEY
                  0x00392c                  EDLEFT
                  0x0038bc                  EDPUTC
                  0x00393a                  EDRIGHT
                  0x003b42                  EDRMVLN
                  0x003a6a                  EDTAB
                  0x003948                  EDTOP
                  0x003860                  EDUP
                  0x00367c                  EDWHITELN
                  0x0018a6                  EEBLKCOUNT
                  0x00181e                  EEBLKTOADR
                  0x00193c                  EEPROM
                  0x001878                  EERASE
                  0x001842                  EEREAD
                  0x001840                  EETORAM
                  0x0018a8                  EEVALIDQ
                  0x00187a                  EEWRITE
                  0x00119a                  EFETCH
                  0x00200e                  EKEY
                  0x002020                  EKEYQ
                  0x000eb2                  ELSE
                  0x002032                  EMIT
                  0x002044                  EMITQ
                  0x0033d4                  EMPTYBUFFERS
                  0x00223a                  END
                  0x000f16                  ENDCASE
                  0x000efc                  ENDOF
                  0x0042aa                  ENTER
                  0x001856                  EPAGE
                  0x001482                  EQUAL
                  0x002450                  ERASEROWS
                  0x001bae                  ESCLBRAC
                  0x001e2c                  ESCSEQQ
                  0x001a82                  ESCTOVK
                  0x001862                  ESECTOR
                  0x0011ac                  ETBLFETCH
                  0x002100                  ETYPE
                  0x0008f0                  EVAL
                  0x0013ea                  EVARMINUS
                  0x0013d4                  EVARPLUS
                  0x001328                  EVEN
                  0x000624                  EXECUTE
                  0x0003c4                  EXIT
                  0x000f9e                  EXITCOMMA
                  0x001a02                  EXPECT_TILDE
                  0x002a34                  EXTRACT
                  0x0022b0                  FADDR
                  0x000422                  FALSE
                  0x002272                  FBUFFER
                  0x00229e                  FCFETCHH
                  0x002294                  FCFETCHL
                  0x00230e                  FERASE
                  0x00055c                  FETCH
                  0x00062e                  FETCHEXEC
                  0x0046ea                  FETCH_EXEC
                  0x00228a                  FFETCH
                  0x003212                  FIELDS
                  0x0027ac                  FILL
                  0x00079e                  FIND
                  0x000dd8                  FIXLEAVE
                  0x002386                  FLASHTORAM
                  0x0022b6                  FLASH_OP
                  0x003404                  FLUSH
                  0x001390                  FMSLASHMOD
                  0x0022b2                  FNEXT
                  0x000c36                  FOREJUMP
                  0x000fe6                  FORGET
                  0x003068                  FREE
                  0x002e9e                  FREELIST
                  0x002e9c                  FREE_BYTES_STORE
                  0x0009d8                  GETCLIP
                  0x001950                  GETKEY
                  0x0027fe                  GETLINE
                  0x001534                  GETX
                  0x00153e                  GETY
                  0x001496                  GREATER
                  0x003d42                  HARDWARE_INIT
                  0x000fb2                  HEADER
                  0x002e9a                  HEAPFREE
                  0x002e8c                  HEAPSIZE
                  0x002e7e                  HEAP_INIT
                  0x000a34                  HERE
                  0x0011d4                  HEX
                  0x000646                  HIDDEN
                  0x000b46                  HIDE
                  0x002a5c                  HOLD
                  0x00222a                  HOME
                  0x0006a0                  HP
                  0x0014bc                  HTAB
                  0x0022ae                  ICFETCH
                  0x0022a6                  IFETCH
                  0x000e8e                  IIF
                  0x00241e                  IMGADDR
                  0x0023e8                  IMGDP
                  0x0023ce                  IMGHEAD
                  0x0023de                  IMGLATST
                  0x0024b4                  IMGLOAD
                  0x0023d2                  IMGROW
                  0x00248c                  IMGSAVE
                  0x0023d4                  IMGSIGN
                  0x0023f2                  IMGSIZE
                  0x000644                  IMMED
                  0x000b24                  IMMEDIATE
                  0x0019bc                  INC_COLON
                  0x0019c0                  INC_LINE
                  0x003d20                  INFLOOP
                  0x0020ca                  INSRTLN
                  0x00088c                  INTERPRET
                  0x001424                  INVERT
                  0x003d68                  IO_LOCK
                  0x000506                  IPFETCH
                  0x001174                  IS
                  0x001fcc                  ISLOCAL
                  0x001948                  KBD_INIT
                  0x00194a                  KBD_RESET
                  0x00362c                  KCASE
                  0x001fea                  KEY
                  0x001ffc                  KEYQ
                  0x0038a2                  LASTPOS
                  0x000466                  LATEST
                  0x000c5a                  LBRACKET
                  0x001578                  LCATXY
                  0x00169c                  LCBACKDEL
                  0x0015f8                  LCBOTTOM
                  0x0014e2                  LCBSLASHW
                  0x00150c                  LCCLS
                  0x001f0c                  LCCONS
                  0x00161c                  LCCRLF
                  0x00163a                  LCDEL
                  0x0016ac                  LCDELEOL
                  0x0016aa                  LCDELLN
                  0x0015ea                  LCDOWN
                  0x001952                  LCEKEY
                  0x00194c                  LCEKEYQ
                  0x00171e                  LCEMITQ
                  0x0015a8                  LCEND
                  0x001954                  LCFILTER
                  0x0015a6                  LCHOME
                  0x0014ca                  LCINIT
                  0x00165a                  LCINSRT
                  0x0016fc                  LCINSRTLN
                  0x0019a2                  LCKEY
                  0x001982                  LCKEYQ
                  0x0015a2                  LCLEFT
                  0x0015a4                  LCRIGHT
                  0x0016c0                  LCRMVLN
                  0x00161e                  LCTAB
                  0x0015ec                  LCTOP
                  0x0015e8                  LCUP
                  0x0014e4                  LCWHITELN
                  0x001580                  LCXYQ
                  0x000dc6                  LEAVE
                  0x002206                  LEFT
                  0x00064a                  LENMASK
                  0x001490                  LESS
                  0x003dc4                  LFSR
                  0x003414                  LIST
                  0x0003c6                  LIT
                  0x000cce                  LITERAL
                  0x00155c                  LNADR
                  0x003382                  LOAD
                  0x001f9c                  LOCAL
                  0x000e02                  LOOP
                  0x0029ca                  LPAREN
                  0x00123c                  LSHIFT
                  0x002a44                  LTSHARP
                  0x0023d0                  MAGIC
                  0x003012                  MALLOC
                  0x000c1a                  MARKADDR
                  0x00102c                  MARKER
                  0x000c2a                  MARKSLOT
                  0x0012f6                  MAX
                  0x0011c0                  MAXINT
                  0x0012fe                  MIN
                  0x0011cc                  MININT
                  0x001200                  MINUS
                  0x0027ba                  MINUSTRAILING
                  0x0012ba                  MOD
                  0x00281a                  MOVE
                  0x001268                  MPLUS
                  0x003d92                  MS
                  0x0011b4                  MSB
                  0x0036b2                  MSGLINE
                  0x001276                  MSTAR
                  0x000b60                  NAMEMARK
                  0x00140c                  NEGATE
                  0x003738                  NEXTBLOCK
                  0x000aa0                  NFATOCFA
                  0x000a8c                  NFATOLFA
                  0x0004e4                  NIP
                  0x002ec4                  NLNKFETCH
                  0x002edc                  NLNKSTORE
                  0x000648                  NMARK
                  0x001108                  NOINIT
                  0x00106a                  NOP
                  0x00145c                  NOT
                  0x00148a                  NOTEQ
                  0x00317a                  NOTUSED
                  0x00325a                  NOUPDATE
                  0x0004c8                  NROT
                  0x001330                  ODD
                  0x000edc                  OF
                  0x000930                  OK
                  0x0031a6                  OLDEST
                  0x001218                  ONEMINUS
                  0x001208                  ONEPLUS
                  0x0037e4                  OPENBLOCK
                  0x00144c                  OR
                  0x0004d2                  OVER
                  0x003124                  OWNQ
                  0x000676                  PAD
                  0x000662                  PADSIZE
                  0x000720                  PARSE
                  0x00076e                  PARSENAME
                  0x00068c                  PASTE
                  0x00194e                  PEEK_KEY
                  0x00051a                  PICK
                  0x002ed0                  PLNKFETCH
                  0x002ee8                  PLNKSTORE
                  0x0011fa                  PLUS
                  0x000e16                  PLUSLOOP
                  0x001250                  PLUSSTORE
                  0x000ca8                  POSTONE
                  0x002f42                  PREPEND
                  0x00375e                  PREVBLOCK
                  0x003696                  PROMPT
                  0x00161a                  PUTC
                  0x000980                  QABORT
                  0x003d22                  QAUTORUN
                  0x002d4c                  QBASE
                  0x003d36                  QCOLD
                  0x000f3a                  QCOMPILE
                  0x002c26                  QDIGIT
                  0x000da2                  QDO
                  0x002c78                  QDOUBLE
                  0x003492                  QDSP
                  0x000484                  QDUP
                  0x000b0e                  QEMPTY
                  0x002f5c                  QFIT
                  0x0022c4                  QFLIMITS
                  0x002432                  QIMG
                  0x003042                  QINLIST
                  0x000f74                  QNAME
                  0x001356                  QNEGATE
                  0x002e10                  QNUMBER
                  0x001962                  QPRTCHAR
                  0x002db2                  QQUOTEDCHAR
                  0x002646                  QSDC
                  0x002652                  QSDCOK
                  0x002d20                  QSIGN
                  0x002448                  QSIZE
                  0x002b54                  QUESTION
                  0x000a1c                  QUIT
                  0x00180a                  QWIP
                  0x000c7e                  QWORD
                  0x0021be                  QWRAP
                  0x0003ee                  R0
                  0x000402                  RAMEND
                  0x001834                  RAMTOEE
                  0x002346                  RAMTOFLASH
                  0x0017ca                  RAMTOXR
                  0x003dce                  RAND
                  0x000c6a                  RBRACKET
                  0x0004a2                  RDROP
                  0x0024f6                  READCID
                  0x0024f4                  READCSD
                  0x003d76                  REBOOT
                  0x000d74                  RECURSE
                  0x001fb0                  REMOTE
                  0x000e64                  REPEAT
                  0x0009ee                  REPL
                  0x003668                  RESTORELINE
                  0x0035ae                  RESUME
                  0x000b84                  REVEAL
                  0x000522                  RFETCH
                  0x0004fe                  RFROM
                  0x002218                  RIGHT
                  0x0020b6                  RMVLN
                  0x0004be                  ROT
                  0x0022fa                  ROWTOFADR
                  0x00347a                  RPBREAK
                  0x00053a                  RPFETCH
                  0x000542                  RPSTORE
                  0x001248                  RSHIFT
                  0x000cfe                  RT_CQUOTE
                  0x00108a                  RT_DOES
                  0x001046                  RT_MARKER
                  0x0003f6                  S0
                  0x0033ac                  SAVEBUFFERS
                  0x0036f6                  SAVEFAILED
                  0x00364a                  SAVELINE
                  0x003a56                  SAVESCREEN
                  0x00371e                  SAVESUCCESS
                  0x0027e8                  SCAN
                  0x0030d6                  SCR
                  0x0014b2                  SCRBUF
                  0x001594                  SCRCHAR
                  0x00152a                  SCRLDN
                  0x00151a                  SCRLUP
                  0x0021ca                  SCROLL
                  0x003962                  SCRSIZE
                  0x0039ec                  SCRTOBLK
                  0x00271c                  SDCARD
                  0x0026b8                  SDCBLKREAD
                  0x0026a4                  SDCBLKTOADR
                  0x0026e6                  SDCBLKWRITE
                  0x002688                  SDCBLOCKS
                  0x002622                  SDCINIT
                  0x002614                  SDCR
                  0x00266a                  SDCREAD
                  0x00269a                  SDCSEGMENTS
                  0x00269c                  SDCVALIDQ
                  0x002678                  SDCWRITE
                  0x00294c                  SEARCH
                  0x00262e                  SEGMENT
                  0x00263c                  SEGMENTQ
                  0x0010c8                  SEMICOLON
                  0x002896                  SEQUAL
                  0x00172c                  SERENBL
                  0x001720                  SERIAL_INIT
                  0x0023fc                  SETHEADER
                  0x001548                  SETX
                  0x001552                  SETY
                  0x003d62                  SET_CLOCK
                  0x001798                  SGETC
                  0x0017b0                  SGETCQ
                  0x002a72                  SHARP
                  0x002ab0                  SHARPGT
                  0x002a84                  SHARPS
                  0x002a9a                  SIGN
                  0x0027f2                  SKIP
                  0x0012b2                  SLASH
                  0x0012d6                  SLASHMOD
                  0x0027c6                  SLASHSTRING
                  0x000d0e                  SLIT
                  0x0029b2                  SLITERAL
                  0x002f66                  SMALLBLK
                  0x002f8e                  SMALLEST
                  0x001362                  SMSLASHREM
                  0x003e08                  SOUND_INIT
                  0x000a74                  SOURCE
                  0x002068                  SPACE
                  0x00207c                  SPACES
                  0x00052a                  SPFETCH
                  0x000532                  SPSTORE
                  0x00178e                  SPUTC
                  0x000d2e                  SQUOTE
                  0x003dd8                  SRAND
                  0x000a80                  SRCSTORE
                  0x0017a4                  SREADYQ
                  0x00126e                  STAR
                  0x0012c2                  STARSLASH
                  0x0012cc                  STARSLASHMOD
                  0x00066c                  STATE
                  0x003aa4                  STATUSLN
                  0x00134a                  STOD
                  0x000590                  STORE
                  0x0017b2                  STORE_INIT
                  0x002acc                  STR
                  0x000d1a                  STRCOMPILE
                  0x000cf6                  STRQUOTE
                  0x0030e6                  STRUCADR
                  0x0004ac                  SWAP
                  0x001f90                  SYSCONS
                  0x000458                  SYSLATEST
                  0x0021d2                  TAB
                  0x000580                  TBLFETCH
                  0x00058a                  TBLSTORE
                  0x0003cc                  TBRANCH
                  0x00332e                  TEXTBLOCK
                  0x0035d0                  TEXTEND
                  0x001610                  TGLCHAR
                  0x000ea2                  THEN
                  0x00345e                  THRU
                  0x000680                  TIB
                  0x000656                  TIBSIZE
                  0x000bda                  TICK
                  0x003d80                  TICKS
                  0x003d60                  TICKS_INIT
                  0x002c08                  TOBASE10
                  0x000aba                  TOBODY
                  0x002738                  TOCHAR
                  0x000752                  TOCOUNTED
                  0x00054c                  TOCSTK
                  0x00328c                  TODATA
                  0x000696                  TOIN
                  0x003e12                  TONE
                  0x002cb8                  TONUMBER
                  0x00224a                  TOP
                  0x0004f6                  TOR
                  0x000418                  TRUE
                  0x0004ee                  TUCK
                  0x0014be                  TVOUT_INIT
                  0x000498                  TWODROP
                  0x00047a                  TWODUP
                  0x00056c                  TWOFETCH
                  0x001220                  TWOMINUS
                  0x0004dc                  TWOOVER
                  0x001210                  TWOPLUS
                  0x0005d4                  TWORFETCH
                  0x0005be                  TWORFROM
                  0x001230                  TWOSLASH
                  0x001228                  TWOSTAR
                  0x0005a0                  TWOSTORE
                  0x0004b6                  TWOSWAP
                  0x0005a8                  TWOTOR
                  0x0020dc                  TYPE
                  0x002b76                  UDDOT
                  0x002bc0                  UDDOTR
                  0x002b2c                  UDOT
                  0x002b18                  UDOTR
                  0x001400                  UDREL
                  0x0012ee                  UDSLASHMOD
                  0x001286                  UDSTAR
                  0x001290                  UDSTARD
                  0x0014a6                  UGREATER
                  0x00149e                  ULESS
                  0x00040e                  ULIMIT
                  0x001308                  UMAX
                  0x001312                  UMIN
                  0x0012e2                  UMSLASHMOD
                  0x00127e                  UMSTAR
                  0x002ef4                  UNLINK
                  0x000618                  UNLOOP
                  0x000e4e                  UNTIL
                  0x003dfe                  UNUSED
                  0x0021e2                  UP
                  0x003232                  UPDATE
                  0x0031e4                  UPDATEDFETCH
                  0x0027de                  UPPER
                  0x003d8a                  USEC
                  0x002ea0                  USEDLIST
                  0x0010e0                  VARIABLE
                  0x003d6a                  VARS_INIT
                  0x0003e6                  VERSION
                  0x000638                  VEXEC
                  0x0014c8                  VIDEO
                  0x001c98                  VTATXY
                  0x001d28                  VTBACKDEL
                  0x001c6e                  VTBOTTOM
                  0x001ee8                  VTBSLASHW
                  0x001cd0                  VTCLS
                  0x001f4e                  VTCONS
                  0x001e8c                  VTCRLF
                  0x001ce2                  VTDEL
                  0x001cc2                  VTDELEOL
                  0x001d52                  VTDELLN
                  0x001be0                  VTDOWN
                  0x001dde                  VTDSR
                  0x001ac8                  VTEKEY
                  0x001c50                  VTEND
                  0x001b32                  VTFILTER
                  0x001dfa                  VTGETP
                  0x001c46                  VTHOME
                  0x0019c2                  VTINIT
                  0x001cf4                  VTINSERT
                  0x001d7a                  VTINSRTLN
                  0x001b7e                  VTKEY
                  0x001b60                  VTKEYQ
                  0x001c20                  VTLEFT
                  0x001dcc                  VTPRTINV
                  0x001ec4                  VTPUTC
                  0x001c02                  VTRIGHT
                  0x001d6c                  VTRMVLN
                  0x001ba2                  VTSNDARG
                  0x001c7c                  VTTAB
                  0x001c62                  VTTOP
                  0x001b8a                  VTTYPE
                  0x001bbe                  VTUP
                  0x001d8c                  VTWHITELN
                  0x001e4e                  VTXYQ
                  0x000e7a                  WHILE
                  0x0021a2                  WHITELN
                  0x00131e                  WITHIN
                  0x000778                  WORD
                  0x0006ac                  WORDS
                  0x0021b4                  WRAP
                  0x0022b4                  WRITE_LATCH
                  0x001814                  WWIP
                  0x0017f0                  XBLKCOUNT
                  0x0017b4                  XBLKTOADR
                  0x0019ee                  XOFF
                  0x0019dc                  XON
                  0x001454                  XOR
                  0x001926                  XRAM
                  0x0017e4                  XREAD
                  0x0017e2                  XRTORAM
                  0x0017f2                  XVALIDQ
                  0x0017cc                  XWRITE
                  0x00217e                  XYQ
                  0x0003ce                  ZBRANCH
                  0x00146c                  ZERODIFF
                  0x001464                  ZEROEQ
                  0x00147c                  ZEROGT
                  0x001474                  ZEROLT
                  0x000390                  __CNInterrupt
                  0x0003a6                  __DefaultInterrupt
                  0x0557fa                  __FGS.sec
                  0x0003c2                  __INT1Interrupt
                  0x00039a                  __MathError
                  0x0002ba                  __OC2Interrupt
                  0x0003a0                  __StackError
                  0x0003a8                  __T1Interrupt
                  0x00022e                  __T2Interrupt
                  0x000320                  __U1RXInterrupt
                  0x00036c                  __U2RXInterrupt
                  0x000200                  __reset
                  0x005b72                  _code_end
                  0x003e14                  _font
                  0x004221                  _math_error
                  0x004250                  _stack_reset
                  0x004263                  _unknown_reset
                  0x004237                  _user_aborted
                  0x004214                  _version
                  0x004920                  code_ABS
                  0x0046c4                  code_ALIGNED
                  0x0049be                  code_AND
                  0x004ddc                  code_B115200
                  0x004dbe                  code_B19200
                  0x004da0                  code_B2400
                  0x004dc8                  code_B38400
                  0x004daa                  code_B4800
                  0x004dd2                  code_B57600
                  0x004db4                  code_B9600
                  0x004de6                  code_BAUD
                  0x00451a                  code_BIDFETCH
                  0x0049ae                  code_BITMASK
                  0x00551a                  code_BL
                  0x005628                  code_BLANK
                  0x00568c                  code_BLK
                  0x0056a0                  code_BLKDEV
                  0x0042f2                  code_BRANCH
                  0x0056aa                  code_BUFARRAY
                  0x0045ce                  code_CALL
                  0x0043c2                  code_CELL
                  0x00457e                  code_CELLPLUS
                  0x004586                  code_CELLS
                  0x004504                  code_CFETCH
                  0x004c08                  code_CHRTOSCR
                  0x0042e6                  code_CLIT
                  0x00570a                  code_CLR_LOW_RAM
                  0x005716                  code_CLR_RAM
                  0x0055e4                  code_CMOVE
                  0x005604                  code_CMOVETO
                  0x0051a6                  code_COLON1
                  0x005194                  code_CPOS_FETCH
                  0x005182                  code_CPOS_STORE
                  0x0044ee                  code_CSTKFROM
                  0x004566                  code_CSTORE
                  0x004bca                  code_CURADR
                  0x004b1c                  code_CURENBL
                  0x00492a                  code_DABS
                  0x0051be                  code_DEC_COLON
                  0x004492                  code_DEPTH
                  0x0049a4                  code_DINVERT
                  0x0047e0                  code_DMINUS
                  0x00498c                  code_DNEGATE
                  0x004316                  code_DODO
                  0x004590                  code_DOI
                  0x0045a4                  code_DOJ
                  0x00459a                  code_DOL
                  0x00433a                  code_DOLOOP
                  0x004354                  code_DOPLOOP
                  0x004328                  code_DOQDO
                  0x0043b8                  code_DP0
                  0x0047ce                  code_DPLUS
                  0x0043ec                  code_DROP
                  0x0043cc                  code_DUP
                  0x005040                  code_EALL
                  0x004702                  code_ECFETCH
                  0x0056d2                  code_EDITLN
                  0x0050ac                  code_EEBLKCOUNT
                  0x00504a                  code_EERASE
                  0x004fee                  code_EETORAM
                  0x0046f4                  code_EFETCH
                  0x00502c                  code_EPAGE
                  0x004a1c                  code_EQUAL
                  0x005036                  code_ESECTOR
                  0x004712                  code_ETBLFETCH
                  0x004904                  code_EVEN
                  0x0045b8                  code_EXECUTE
                  0x0042d4                  code_EXIT
                  0x005286                  code_FADDR
                  0x0043ae                  code_FALSE
                  0x005238                  code_FCFETCHH
                  0x005226                  code_FCFETCHL
                  0x0044fc                  code_FETCH
                  0x0045c0                  code_FETCHEXEC
                  0x00520c                  code_FFETCH
                  0x005536                  code_FILL
                  0x004674                  code_FIND
                  0x0052ca                  code_FLASH_OP
                  0x005294                  code_FNEXT
                  0x005678                  code_FREELIST
                  0x00566e                  code_FREE_BYTES_STORE
                  0x00511e                  code_GETKEY
                  0x004b62                  code_GETX
                  0x004b70                  code_GETY
                  0x004a4c                  code_GREATER
                  0x005664                  code_HEAPFREE
                  0x00565a                  code_HEAPSIZE
                  0x005640                  code_HEAP_INIT
                  0x0045e8                  code_HIDDEN
                  0x004a86                  code_HTAB
                  0x005264                  code_ICFETCH
                  0x00524a                  code_IFETCH
                  0x0052f4                  code_IMGHEAD
                  0x005308                  code_IMGROW
                  0x0045de                  code_IMMED
                  0x0051b0                  code_INC_COLON
                  0x0051cc                  code_INC_LINE
                  0x0056dc                  code_INFLOOP
                  0x00499c                  code_INVERT
                  0x005722                  code_IO_LOCK
                  0x004488                  code_IPFETCH
                  0x0050b6                  code_KBD_INIT
                  0x0050e6                  code_KBD_RESET
                  0x004b0a                  code_LCBSLASHW
                  0x004b38                  code_LCCLS
                  0x004d0e                  code_LCCRLF
                  0x004d32                  code_LCDELLN
                  0x004c92                  code_LCDOWN
                  0x005134                  code_LCEKEY
                  0x005100                  code_LCEKEYQ
                  0x004d54                  code_LCEMITQ
                  0x005158                  code_LCFILTER
                  0x004c66                  code_LCHOME
                  0x004c34                  code_LCLEFT
                  0x004c4c                  code_LCRIGHT
                  0x004c7a                  code_LCUP
                  0x0045fc                  code_LENMASK
                  0x004a3c                  code_LESS
                  0x00576a                  code_LFSR
                  0x0042dc                  code_LIT
                  0x004788                  code_LSHIFT
                  0x0052fe                  code_MAGIC
                  0x0048be                  code_MAX
                  0x004732                  code_MAXINT
                  0x0048cc                  code_MIN
                  0x00473c                  code_MININT
                  0x00474e                  code_MINUS
                  0x00554e                  code_MINUSTRAILING
                  0x00484c                  code_MOD
                  0x0055dc                  code_MOVE
                  0x0047f4                  code_MPLUS
                  0x004728                  code_MSB
                  0x004812                  code_MSTAR
                  0x004984                  code_NEGATE
                  0x004460                  code_NIP
                  0x0045f2                  code_NMARK
                  0x0049d6                  code_NOT
                  0x004a2c                  code_NOTEQ
                  0x004438                  code_NROT
                  0x004912                  code_ODD
                  0x004768                  code_ONEMINUS
                  0x004758                  code_ONEPLUS
                  0x0049c6                  code_OR
                  0x004448                  code_OVER
                  0x004610                  code_PADSIZE
                  0x00461a                  code_PARSENAME
                  0x00510e                  code_PEEK_KEY
                  0x0044a0                  code_PICK
                  0x004746                  code_PLUS
                  0x0047c0                  code_PLUSSTORE
                  0x004cc2                  code_PUTC
                  0x0056b4                  code_QDSP
                  0x0043e0                  code_QDUP
                  0x004950                  code_QNEGATE
                  0x00543c                  code_QSDC
                  0x004f62                  code_QWIP
                  0x0051ec                  code_QWRAP
                  0x00437c                  code_R0
                  0x004390                  code_RAMEND
                  0x004f90                  code_RAMTOEE
                  0x004ede                  code_RAMTOXR
                  0x005782                  code_RAND
                  0x0043fe                  code_RDROP
                  0x005326                  code_READCID
                  0x005312                  code_READCSD
                  0x005744                  code_REBOOT
                  0x0044ae                  code_RFETCH
                  0x00447e                  code_RFROM
                  0x004426                  code_ROT
                  0x0044cc                  code_RPFETCH
                  0x0044d6                  code_RPSTORE
                  0x0047a4                  code_RSHIFT
                  0x004386                  code_S0
                  0x005596                  code_SCAN
                  0x005696                  code_SCR
                  0x004a7c                  code_SCRBUF
                  0x004be0                  code_SCRCHAR
                  0x004b58                  code_SCRLDN
                  0x004b4e                  code_SCRLUP
                  0x0051fa                  code_SCROLL
                  0x005502                  code_SDCBLOCKS
                  0x005344                  code_SDCINIT
                  0x00533a                  code_SDCR
                  0x005446                  code_SDCREAD
                  0x005510                  code_SDCSEGMENTS
                  0x005492                  code_SDCWRITE
                  0x005420                  code_SEGMENT
                  0x005432                  code_SEGMENTQ
                  0x004d8a                  code_SERENBL
                  0x004d5e                  code_SERIAL_INIT
                  0x004b7e                  code_SETX
                  0x004ba4                  code_SETY
                  0x0056fa                  code_SET_CLOCK
                  0x004e0c                  code_SGETC
                  0x004e52                  code_SGETCQ
                  0x0055ba                  code_SKIP
                  0x00483e                  code_SLASH
                  0x004880                  code_SLASHMOD
                  0x0057c2                  code_SOUND_INIT
                  0x0046ce                  code_SOURCE
                  0x0044b8                  code_SPFETCH
                  0x0044c4                  code_SPSTORE
                  0x004df8                  code_SPUTC
                  0x0057b2                  code_SRAND
                  0x0046dc                  code_SRCSTORE
                  0x004e44                  code_SREADYQ
                  0x004808                  code_STAR
                  0x00485a                  code_STARSLASH
                  0x00486c                  code_STARSLASHMOD
                  0x004940                  code_STOD
                  0x00455c                  code_STORE
                  0x004e60                  code_STORE_INIT
                  0x004406                  code_SWAP
                  0x004538                  code_TBLFETCH
                  0x004548                  code_TBLSTORE
                  0x0042fa                  code_TBRANCH
                  0x004cac                  code_TGLCHAR
                  0x004606                  code_TIBSIZE
                  0x005746                  code_TICKS
                  0x0056de                  code_TICKS_INIT
                  0x005524                  code_TOCHAR
                  0x0044e0                  code_TOCSTK
                  0x0057e0                  code_TONE
                  0x004474                  code_TOR
                  0x0043a4                  code_TRUE
                  0x004468                  code_TUCK
                  0x004a90                  code_TVOUT_INIT
                  0x0043f4                  code_TWODROP
                  0x0043d4                  code_TWODUP
                  0x00450e                  code_TWOFETCH
                  0x004770                  code_TWOMINUS
                  0x004452                  code_TWOOVER
                  0x004760                  code_TWOPLUS
                  0x004780                  code_TWOSLASH
                  0x004778                  code_TWOSTAR
                  0x004572                  code_TWOSTORE
                  0x004412                  code_TWOSWAP
                  0x00495e                  code_UDREL
                  0x0048a2                  code_UDSLASHMOD
                  0x00482a                  code_UDSTAR
                  0x004a6c                  code_UGREATER
                  0x004a5c                  code_ULESS
                  0x00439a                  code_ULIMIT
                  0x0048da                  code_UMAX
                  0x0048e8                  code_UMIN
                  0x004890                  code_UMSLASHMOD
                  0x00481e                  code_UMSTAR
                  0x0045ae                  code_UNLOOP
                  0x00556e                  code_UPPER
                  0x005750                  code_USEC
                  0x005682                  code_USEDLIST
                  0x00572a                  code_VARS_INIT
                  0x004372                  code_VERSION
                  0x0045c4                  code_VEXEC
                  0x004af8                  code_VIDEO
                  0x0048f6                  code_WITHIN
                  0x0051da                  code_WRAP
                  0x0052a2                  code_WRITE_LATCH
                  0x004f58                  code_XBLKCOUNT
                  0x0049ce                  code_XOR
                  0x004f1e                  code_XRTORAM
                  0x004308                  code_ZBRANCH
                  0x0049f0                  code_ZERODIFF
                  0x0049e6                  code_ZEROEQ
                  0x004a0c                  code_ZEROGT
                  0x004a00                  code_ZEROLT
                  0x005800                  cursor_blink
                  0x005848                  cursor_disable
                  0x005834                  cursor_enable
                  0x000956                  lfa_ABORT
                  0x000996                  lfa_ABORTQUOTE
                  0x001332                  lfa_ABS
                  0x0007a0                  lfa_ACCEPT
                  0x00117e                  lfa_ACTIONOF
                  0x0006f6                  lfa_ADRTOIN
                  0x000e32                  lfa_AGAIN
                  0x000a3c                  lfa_ALIGN
                  0x000a5e                  lfa_ALIGNED
                  0x000ba0                  lfa_ALLOT
                  0x00143e                  lfa_AND
                  0x00204e                  lfa_ATXY
                  0x001770                  lfa_B115200
                  0x00174c                  lfa_B19200
                  0x00172e                  lfa_B2400
                  0x001758                  lfa_B38400
                  0x001738                  lfa_B4800
                  0x001764                  lfa_B57600
                  0x001742                  lfa_B9600
                  0x002130                  lfa_BACKDEL
                  0x000440                  lfa_BASE
                  0x00177c                  lfa_BAUD
                  0x000e22                  lfa_BEGIN
                  0x00056e                  lfa_BIDFETCH
                  0x001432                  lfa_BITMASK
                  0x002728                  lfa_BL
                  0x0028ce                  lfa_BLANK
                  0x0030c8                  lfa_BLK
                  0x0030d8                  lfa_BLKDEV
                  0x003b6c                  lfa_BLKED
                  0x0018c6                  lfa_BLKREAD
                  0x0018f2                  lfa_BLKTOADR
                  0x003990                  lfa_BLKTOSCR
                  0x001906                  lfa_BLKVALIDQ
                  0x0018dc                  lfa_BLKWRITE
                  0x00330c                  lfa_BLOCK
                  0x002254                  lfa_BOTTOM
                  0x00356a                  lfa_BREAK
                  0x002ea2                  lfa_BSIZEFETCH
                  0x002188                  lfa_BSLASHW
                  0x0032ee                  lfa_BUFFER
                  0x0030ac                  lfa_BUFFERCOLON
                  0x00063a                  lfa_CALL
                  0x0024f8                  lfa_CARDINFO
                  0x000ec2                  lfa_CASE
                  0x000bc2                  lfa_CCOMMA
                  0x00042c                  lfa_CELL
                  0x0005e8                  lfa_CELLPLUS
                  0x0005f2                  lfa_CELLS
                  0x000ad0                  lfa_CFATONFA
                  0x00055e                  lfa_CFETCH
                  0x002848                  lfa_CFETCHPLUS
                  0x00275e                  lfa_CHAR
                  0x00274c                  lfa_CHARPLUS
                  0x00273a                  lfa_CHARS
                  0x001596                  lfa_CHRTOSCR
                  0x003dda                  lfa_CLEAR
                  0x0009aa                  lfa_CLIP
                  0x002168                  lfa_CLS
                  0x00281c                  lfa_CMOVE
                  0x002826                  lfa_CMOVETO
                  0x002ae0                  lfa_COLFILL
                  0x00105a                  lfa_COLON
                  0x000f88                  lfa_COLON_NO_NAME
                  0x000bb0                  lfa_COMMA
                  0x0029d6                  lfa_COMMENT
                  0x0028d8                  lfa_COMPARE
                  0x00278c                  lfa_COMPILECHAR
                  0x000c06                  lfa_COMPILETICK
                  0x0010ec                  lfa_CONSTANT
                  0x00086a                  lfa_COUNT
                  0x002b62                  lfa_CQUESTION
                  0x000d3a                  lfa_CQUOTE
                  0x002158                  lfa_CR
                  0x00106e                  lfa_CREATE
                  0x00054e                  lfa_CSTKFROM
                  0x000592                  lfa_CSTORE
                  0x00285c                  lfa_CSTRTORAM
                  0x00156c                  lfa_CURADR
                  0x001500                  lfa_CURENBL
                  0x00133a                  lfa_DABS
                  0x00347e                  lfa_DBGEN
                  0x002b84                  lfa_DDOT
                  0x002ba2                  lfa_DDOTR
                  0x00355a                  lfa_DEBUG
                  0x0011e0                  lfa_DECIMAL
                  0x002bd4                  lfa_DECIMALQ
                  0x001134                  lfa_DEFER
                  0x00115c                  lfa_DEFERFETCH
                  0x00114a                  lfa_DEFERSTORE
                  0x002144                  lfa_DELEOL
                  0x00211c                  lfa_DELETE
                  0x00209c                  lfa_DELLN
                  0x000508                  lfa_DEPTH
                  0x0018b8                  lfa_DEVID
                  0x002a08                  lfa_DIGIT
                  0x001426                  lfa_DINVERT
                  0x00125a                  lfa_DMINUS
                  0x00140e                  lfa_DNEGATE
                  0x000d82                  lfa_DO
                  0x0010a2                  lfa_DOESTO
                  0x0005fc                  lfa_DOI
                  0x000608                  lfa_DOJ
                  0x000602                  lfa_DOL
                  0x002b36                  lfa_DOT
                  0x0029f6                  lfa_DOTPAREN
                  0x000d4c                  lfa_DOTQUOTE
                  0x002b00                  lfa_DOTR
                  0x0034c4                  lfa_DOTRTN
                  0x003494                  lfa_DOTS
                  0x0021ec                  lfa_DOWN
                  0x000436                  lfa_DP
                  0x000424                  lfa_DP0
                  0x001252                  lfa_DPLUS
                  0x000486                  lfa_DROP
                  0x0034fa                  lfa_DUMP
                  0x00046a                  lfa_DUP
                  0x001864                  lfa_EALL
                  0x00119c                  lfa_ECFETCH
                  0x002832                  lfa_ECFETCHPLUS
                  0x001932                  lfa_EEPROM
                  0x00186e                  lfa_EERASE
                  0x001836                  lfa_EETORAM
                  0x001194                  lfa_EFETCH
                  0x002006                  lfa_EKEY
                  0x002018                  lfa_EKEYQ
                  0x000eaa                  lfa_ELSE
                  0x00202a                  lfa_EMIT
                  0x00203c                  lfa_EMITQ
                  0x0033c4                  lfa_EMPTYBUFFERS
                  0x002234                  lfa_END
                  0x000f0c                  lfa_ENDCASE
                  0x000ef4                  lfa_ENDOF
                  0x00184e                  lfa_EPAGE
                  0x00147e                  lfa_EQUAL
                  0x001858                  lfa_ESECTOR
                  0x0011a4                  lfa_ETBLFETCH
                  0x0020f8                  lfa_ETYPE
                  0x0008e4                  lfa_EVAL
                  0x0013e2                  lfa_EVARMINUS
                  0x0013cc                  lfa_EVARPLUS
                  0x001320                  lfa_EVEN
                  0x00061a                  lfa_EXECUTE
                  0x002a2a                  lfa_EXTRACT
                  0x00041a                  lfa_FALSE
                  0x002268                  lfa_FBUFFER
                  0x002296                  lfa_FCFETCHH
                  0x00228c                  lfa_FCFETCHL
                  0x002304                  lfa_FERASE
                  0x000558                  lfa_FETCH
                  0x000626                  lfa_FETCHEXEC
                  0x002284                  lfa_FFETCH
                  0x0027a4                  lfa_FILL
                  0x000796                  lfa_FIND
                  0x00237a                  lfa_FLASHTORAM
                  0x0033fc                  lfa_FLUSH
                  0x001386                  lfa_FMSLASHMOD
                  0x000fdc                  lfa_FORGET
                  0x003060                  lfa_FREE
                  0x0009ce                  lfa_GETCLIP
                  0x0027f4                  lfa_GETLINE
                  0x00152c                  lfa_GETX
                  0x001536                  lfa_GETY
                  0x001492                  lfa_GREATER
                  0x000fa8                  lfa_HEADER
                  0x002e8e                  lfa_HEAPFREE
                  0x002e80                  lfa_HEAPSIZE
                  0x002e72                  lfa_HEAP_INIT
                  0x000a2c                  lfa_HERE
                  0x0011ce                  lfa_HEX
                  0x000b3e                  lfa_HIDE
                  0x002a54                  lfa_HOLD
                  0x002222                  lfa_HOME
                  0x00069a                  lfa_HP
                  0x0014b4                  lfa_HTAB
                  0x0022a8                  lfa_ICFETCH
                  0x0022a0                  lfa_IFETCH
                  0x000e88                  lfa_IIF
                  0x0024aa                  lfa_IMGLOAD
                  0x002482                  lfa_IMGSAVE
                  0x000b18                  lfa_IMMEDIATE
                  0x0020c0                  lfa_INSRTLN
                  0x000880                  lfa_INTERPRET
                  0x00141a                  lfa_INVERT
                  0x000500                  lfa_IPFETCH
                  0x00116e                  lfa_IS
                  0x001fc2                  lfa_ISLOCAL
                  0x001fe4                  lfa_KEY
                  0x001ff4                  lfa_KEYQ
                  0x00045c                  lfa_LATEST
                  0x000c56                  lfa_LBRACKET
                  0x001f02                  lfa_LCCONS
                  0x000dbe                  lfa_LEAVE
                  0x0021fe                  lfa_LEFT
                  0x00148c                  lfa_LESS
                  0x003dbc                  lfa_LFSR
                  0x00340c                  lfa_LIST
                  0x000cc4                  lfa_LITERAL
                  0x001554                  lfa_LNADR
                  0x00337a                  lfa_LOAD
                  0x001f94                  lfa_LOCAL
                  0x000dfa                  lfa_LOOP
                  0x0029c6                  lfa_LPAREN
                  0x001232                  lfa_LSHIFT
                  0x002a3e                  lfa_LTSHARP
                  0x003008                  lfa_MALLOC
                  0x001022                  lfa_MARKER
                  0x0012f0                  lfa_MAX
                  0x0011b6                  lfa_MAXINT
                  0x0012f8                  lfa_MIN
                  0x0011c2                  lfa_MININT
                  0x0011fc                  lfa_MINUS
                  0x0027ae                  lfa_MINUSTRAILING
                  0x0012b4                  lfa_MOD
                  0x002812                  lfa_MOVE
                  0x001262                  lfa_MPLUS
                  0x003d8c                  lfa_MS
                  0x0011ae                  lfa_MSB
                  0x0036a8                  lfa_MSGLINE
                  0x001270                  lfa_MSTAR
                  0x001402                  lfa_NEGATE
                  0x000a96                  lfa_NFATOCFA
                  0x000a82                  lfa_NFATOLFA
                  0x0004de                  lfa_NIP
                  0x001456                  lfa_NOT
                  0x001484                  lfa_NOTEQ
                  0x0004c0                  lfa_NROT
                  0x00132a                  lfa_ODD
                  0x000ed6                  lfa_OF
                  0x001212                  lfa_ONEMINUS
                  0x001202                  lfa_ONEPLUS
                  0x001446                  lfa_OR
                  0x0004ca                  lfa_OVER
                  0x000670                  lfa_PAD
                  0x000658                  lfa_PADSIZE
                  0x000718                  lfa_PARSE
                  0x000760                  lfa_PARSENAME
                  0x000684                  lfa_PASTE
                  0x000512                  lfa_PICK
                  0x0011f6                  lfa_PLUS
                  0x000e0e                  lfa_PLUSLOOP
                  0x00124a                  lfa_PLUSSTORE
                  0x000c9c                  lfa_POSTONE
                  0x00368c                  lfa_PROMPT
                  0x001612                  lfa_PUTC
                  0x002d44                  lfa_QBASE
                  0x000f2e                  lfa_QCOMPILE
                  0x002c1c                  lfa_QDIGIT
                  0x000d9c                  lfa_QDO
                  0x002c6e                  lfa_QDOUBLE
                  0x00348a                  lfa_QDSP
                  0x00047c                  lfa_QDUP
                  0x000b04                  lfa_QEMPTY
                  0x0022b8                  lfa_QFLIMITS
                  0x00242a                  lfa_QIMG
                  0x000f6c                  lfa_QNAME
                  0x00134c                  lfa_QNEGATE
                  0x002e06                  lfa_QNUMBER
                  0x001956                  lfa_QPRTCHAR
                  0x002da2                  lfa_QQUOTEDCHAR
                  0x00263e                  lfa_QSDC
                  0x002648                  lfa_QSDCOK
                  0x002d18                  lfa_QSIGN
                  0x002b50                  lfa_QUESTION
                  0x000a14                  lfa_QUIT
                  0x001802                  lfa_QWIP
                  0x000c76                  lfa_QWORD
                  0x0021b6                  lfa_QWRAP
                  0x0003e8                  lfa_R0
                  0x0003f8                  lfa_RAMEND
                  0x00182a                  lfa_RAMTOEE
                  0x00233a                  lfa_RAMTOFLASH
                  0x0017c0                  lfa_RAMTOXR
                  0x003dc6                  lfa_RAND
                  0x000c66                  lfa_RBRACKET
                  0x00049a                  lfa_RDROP
                  0x003d6c                  lfa_REBOOT
                  0x000d6a                  lfa_RECURSE
                  0x001fa6                  lfa_REMOTE
                  0x000e5a                  lfa_REPEAT
                  0x00365a                  lfa_RESTORELINE
                  0x0035a4                  lfa_RESUME
                  0x000b7a                  lfa_REVEAL
                  0x00051c                  lfa_RFETCH
                  0x0004f8                  lfa_RFROM
                  0x002210                  lfa_RIGHT
                  0x0020ae                  lfa_RMVLN
                  0x0004b8                  lfa_ROT
                  0x0022ee                  lfa_ROWTOFADR
                  0x003470                  lfa_RPBREAK
                  0x000534                  lfa_RPFETCH
                  0x00053c                  lfa_RPSTORE
                  0x00123e                  lfa_RSHIFT
                  0x0003f0                  lfa_S0
                  0x00339c                  lfa_SAVEBUFFERS
                  0x00363e                  lfa_SAVELINE
                  0x003a48                  lfa_SAVESCREEN
                  0x0027e0                  lfa_SCAN
                  0x0030d0                  lfa_SCR
                  0x0014a8                  lfa_SCRBUF
                  0x001588                  lfa_SCRCHAR
                  0x00151c                  lfa_SCRLDN
                  0x00150e                  lfa_SCRLUP
                  0x0021c0                  lfa_SCROLL
                  0x003956                  lfa_SCRSIZE
                  0x0039e2                  lfa_SCRTOBLK
                  0x002712                  lfa_SDCARD
                  0x00267a                  lfa_SDCBLOCKS
                  0x002616                  lfa_SDCINIT
                  0x002660                  lfa_SDCREAD
                  0x00268a                  lfa_SDCSEGMENTS
                  0x00266c                  lfa_SDCWRITE
                  0x002942                  lfa_SEARCH
                  0x002624                  lfa_SEGMENT
                  0x002630                  lfa_SEGMENTQ
                  0x0010c4                  lfa_SEMICOLON
                  0x002890                  lfa_SEQUAL
                  0x001722                  lfa_SERENBL
                  0x001540                  lfa_SETX
                  0x00154a                  lfa_SETY
                  0x001790                  lfa_SGETC
                  0x0017a6                  lfa_SGETCQ
                  0x002a6e                  lfa_SHARP
                  0x002aaa                  lfa_SHARPGT
                  0x002a7e                  lfa_SHARPS
                  0x002a92                  lfa_SIGN
                  0x0027ea                  lfa_SKIP
                  0x0012ae                  lfa_SLASH
                  0x0012ce                  lfa_SLASHMOD
                  0x0027bc                  lfa_SLASHSTRING
                  0x0029a6                  lfa_SLITERAL
                  0x001358                  lfa_SMSLASHREM
                  0x000a6a                  lfa_SOURCE
                  0x002060                  lfa_SPACE
                  0x002072                  lfa_SPACES
                  0x000524                  lfa_SPFETCH
                  0x00052c                  lfa_SPSTORE
                  0x001786                  lfa_SPUTC
                  0x000d28                  lfa_SQUOTE
                  0x003dd0                  lfa_SRAND
                  0x000a76                  lfa_SRCSTORE
                  0x00179a                  lfa_SREADYQ
                  0x00126a                  lfa_STAR
                  0x0012bc                  lfa_STARSLASH
                  0x0012c4                  lfa_STARSLASHMOD
                  0x000664                  lfa_STATE
                  0x001344                  lfa_STOD
                  0x00058c                  lfa_STORE
                  0x002ac6                  lfa_STR
                  0x0004a4                  lfa_SWAP
                  0x001f86                  lfa_SYSCONS
                  0x00044c                  lfa_SYSLATEST
                  0x0021cc                  lfa_TAB
                  0x000578                  lfa_TBLFETCH
                  0x000582                  lfa_TBLSTORE
                  0x003320                  lfa_TEXTBLOCK
                  0x001606                  lfa_TGLCHAR
                  0x000e9a                  lfa_THEN
                  0x003456                  lfa_THRU
                  0x00067a                  lfa_TIB
                  0x00064c                  lfa_TIBSIZE
                  0x000bd6                  lfa_TICK
                  0x003d78                  lfa_TICKS
                  0x002bfe                  lfa_TOBASE10
                  0x000ab2                  lfa_TOBODY
                  0x002730                  lfa_TOCHAR
                  0x000746                  lfa_TOCOUNTED
                  0x000544                  lfa_TOCSTK
                  0x000690                  lfa_TOIN
                  0x003e0a                  lfa_TONE
                  0x002cae                  lfa_TONUMBER
                  0x002244                  lfa_TOP
                  0x0004f0                  lfa_TOR
                  0x000410                  lfa_TRUE
                  0x0004e6                  lfa_TUCK
                  0x000490                  lfa_TWODROP
                  0x000472                  lfa_TWODUP
                  0x000566                  lfa_TWOFETCH
                  0x00121a                  lfa_TWOMINUS
                  0x0004d4                  lfa_TWOOVER
                  0x00120a                  lfa_TWOPLUS
                  0x0005ce                  lfa_TWORFETCH
                  0x0005b8                  lfa_TWORFROM
                  0x00122a                  lfa_TWOSLASH
                  0x001222                  lfa_TWOSTAR
                  0x00059a                  lfa_TWOSTORE
                  0x0004ae                  lfa_TWOSWAP
                  0x0005a2                  lfa_TWOTOR
                  0x0020d4                  lfa_TYPE
                  0x002b70                  lfa_UDDOT
                  0x002bb8                  lfa_UDDOTR
                  0x002b26                  lfa_UDOT
                  0x002b12                  lfa_UDOTR
                  0x0013f8                  lfa_UDREL
                  0x0012e4                  lfa_UDSLASHMOD
                  0x001280                  lfa_UDSTAR
                  0x001288                  lfa_UDSTARD
                  0x0014a0                  lfa_UGREATER
                  0x001498                  lfa_ULESS
                  0x000404                  lfa_ULIMIT
                  0x001300                  lfa_UMAX
                  0x00130a                  lfa_UMIN
                  0x0012d8                  lfa_UMSLASHMOD
                  0x001278                  lfa_UMSTAR
                  0x00060e                  lfa_UNLOOP
                  0x000e46                  lfa_UNTIL
                  0x003df4                  lfa_UNUSED
                  0x0021dc                  lfa_UP
                  0x0027d6                  lfa_UPPER
                  0x003d82                  lfa_USEC
                  0x0010d4                  lfa_VARIABLE
                  0x0003dc                  lfa_VERSION
                  0x000630                  lfa_VEXEC
                  0x0014c0                  lfa_VIDEO
                  0x001f44                  lfa_VTCONS
                  0x001dc0                  lfa_VTPRTINV
                  0x000e72                  lfa_WHILE
                  0x002198                  lfa_WHITELN
                  0x001314                  lfa_WITHIN
                  0x000770                  lfa_WORD
                  0x0006a4                  lfa_WORDS
                  0x0021ac                  lfa_WRAP
                  0x00180c                  lfa_WWIP
                  0x0019e6                  lfa_XOFF
                  0x0019d6                  lfa_XON
                  0x00144e                  lfa_XOR
                  0x00191e                  lfa_XRAM
                  0x0017d8                  lfa_XRTORAM
                  0x002178                  lfa_XYQ
                  0x001466                  lfa_ZERODIFF
                  0x00145e                  lfa_ZEROEQ
                  0x001476                  lfa_ZEROGT
                  0x00146e                  lfa_ZEROLT
                  0x00588a                  scroll_down
                  0x005856                  scroll_up
                  0x005810                  toggle_char
                  0x007800                  vars_count

Configuration mmoire

Nom              Origine            Longueur           Attributs
data             0x001000           0x00c000           a !xr
reset            0x000000           0x000004  
ivt              0x000004           0x0001fc  
program          0x000200           0x0555ec           xr
FICD             0x0557f0           0x000002  
FPOR             0x0557f2           0x000002  
FWDT             0x0557f4           0x000002  
FOSC             0x0557f6           0x000002  
FOSCSEL          0x0557f8           0x000002  
FGS              0x0557fa           0x000002  
FUID0            0x800ff8           0x000002  
FUID1            0x800ffa           0x000002  
FUID2            0x800ffc           0x000002  
FUID3            0x800ffe           0x000002  
*default*        0x000000           0xffffffff  
aivt             0x000000           0xffffffff  

Script de l'diteurs de liens and table de projection mmoire

LOAD build/default/production/mcu_config_bits.o
LOAD build/default/production/forthex.o
LOAD build/default/production/font.o
                    0x0001                  __MPLAB_BUILD = 0x1
LOAD p24EP512GP202
LOAD /opt/microchip/xc16/v1.26/bin/bin/../../lib/libfx-elf.a
                    0x557f0                  __FICD = 0x557f0
                    0x557f2                  __FPOR = 0x557f2
                    0x557f4                  __FWDT = 0x557f4
                    0x557f6                  __FOSC = 0x557f6
                    0x557f8                  __FOSCSEL = 0x557f8
                    0x557fa                  __FGS = 0x557fa
                    0x800ff8                  __FUID0 = 0x800ff8
                    0x800ffa                  __FUID1 = 0x800ffa
                    0x800ffc                  __FUID2 = 0x800ffc
                    0x800ffe                  __FUID3 = 0x800ffe
                    0x0200                  __CODE_BASE = 0x200
                    0x555ec                  __CODE_LENGTH = 0x555ec
                    0x0004                  __IVT_BASE = 0x4
                    0x1000                  __DATA_BASE = 0x1000
                    0xc000                  __DATA_LENGTH = 0xc000

.reset            0x000000          0x4
                  0x000000          0x2 SHORT 0x200 ABSOLUTE (__reset)
                  0x000001          0x2 SHORT 0x4
                  0x000002          0x2 SHORT 0x0 ((ABSOLUTE (__reset) >> 0x10) & 0x7f)
                  0x000003          0x2 SHORT 0x0

.text
 *(.init)
 *(.user_init)
 *(.handle)
 *(.isr*)
 *(.libc)
 *(.libm)
 *(.libdsp)
 *(.lib*)

usercode
 *(usercode)

.intr             0x00022e        0x196
 *(.intr)
 .intr            0x00022e        0x196 build/default/production/forthex.o
                  0x00022e                  __T2Interrupt
                  0x0002ba                  __OC2Interrupt
                  0x000320                  __U1RXInterrupt
                  0x00036c                  __U2RXInterrupt
                  0x000390                  __CNInterrupt
                  0x00039a                  __MathError
                  0x0003a0                  __StackError
                  0x0003a6                  __DefaultInterrupt
                  0x0003a8                  __T1Interrupt
                  0x0003c2                  __INT1Interrupt

.start.text
 *(.start.txt)

.sysdict            0x83c4       0x3a50
 *(.sysdict)
 .sysdict           0x83c4       0x3a50 build/default/production/forthex.o
                    0x83c4                  EXIT
                    0x83c6                  LIT
                    0x83c8                  CLIT
                    0x83ca                  BRANCH
                    0x83cc                  TBRANCH
                    0x83ce                  ZBRANCH
                    0x83d0                  DODO
                    0x83d2                  DOQDO
                    0x83d4                  DOLOOP
                    0x83d6                  DOPLOOP
                    0x83dc                  lfa_VERSION
                    0x83e6                  VERSION
                    0x83e8                  lfa_R0
                    0x83ee                  R0
                    0x83f0                  lfa_S0
                    0x83f6                  S0
                    0x83f8                  lfa_RAMEND
                    0x8402                  RAMEND
                    0x8404                  lfa_ULIMIT
                    0x840e                  ULIMIT
                    0x8410                  lfa_TRUE
                    0x8418                  TRUE
                    0x841a                  lfa_FALSE
                    0x8422                  FALSE
                    0x8424                  lfa_DP0
                    0x842a                  DP0
                    0x842c                  lfa_CELL
                    0x8434                  CELL
                    0x8436                  lfa_DP
                    0x843c                  DP
                    0x8440                  lfa_BASE
                    0x8448                  BASE
                    0x844c                  lfa_SYSLATEST
                    0x8458                  SYSLATEST
                    0x845c                  lfa_LATEST
                    0x8466                  LATEST
                    0x846a                  lfa_DUP
                    0x8470                  DUP
                    0x8472                  lfa_TWODUP
                    0x847a                  TWODUP
                    0x847c                  lfa_QDUP
                    0x8484                  QDUP
                    0x8486                  lfa_DROP
                    0x848e                  DROP
                    0x8490                  lfa_TWODROP
                    0x8498                  TWODROP
                    0x849a                  lfa_RDROP
                    0x84a2                  RDROP
                    0x84a4                  lfa_SWAP
                    0x84ac                  SWAP
                    0x84ae                  lfa_TWOSWAP
                    0x84b6                  TWOSWAP
                    0x84b8                  lfa_ROT
                    0x84be                  ROT
                    0x84c0                  lfa_NROT
                    0x84c8                  NROT
                    0x84ca                  lfa_OVER
                    0x84d2                  OVER
                    0x84d4                  lfa_TWOOVER
                    0x84dc                  TWOOVER
                    0x84de                  lfa_NIP
                    0x84e4                  NIP
                    0x84e6                  lfa_TUCK
                    0x84ee                  TUCK
                    0x84f0                  lfa_TOR
                    0x84f6                  TOR
                    0x84f8                  lfa_RFROM
                    0x84fe                  RFROM
                    0x8500                  lfa_IPFETCH
                    0x8506                  IPFETCH
                    0x8508                  lfa_DEPTH
                    0x8510                  DEPTH
                    0x8512                  lfa_PICK
                    0x851a                  PICK
                    0x851c                  lfa_RFETCH
                    0x8522                  RFETCH
                    0x8524                  lfa_SPFETCH
                    0x852a                  SPFETCH
                    0x852c                  lfa_SPSTORE
                    0x8532                  SPSTORE
                    0x8534                  lfa_RPFETCH
                    0x853a                  RPFETCH
                    0x853c                  lfa_RPSTORE
                    0x8542                  RPSTORE
                    0x8544                  lfa_TOCSTK
                    0x854c                  TOCSTK
                    0x854e                  lfa_CSTKFROM
                    0x8556                  CSTKFROM
                    0x8558                  lfa_FETCH
                    0x855c                  FETCH
                    0x855e                  lfa_CFETCH
                    0x8564                  CFETCH
                    0x8566                  lfa_TWOFETCH
                    0x856c                  TWOFETCH
                    0x856e                  lfa_BIDFETCH
                    0x8576                  BIDFETCH
                    0x8578                  lfa_TBLFETCH
                    0x8580                  TBLFETCH
                    0x8582                  lfa_TBLSTORE
                    0x858a                  TBLSTORE
                    0x858c                  lfa_STORE
                    0x8590                  STORE
                    0x8592                  lfa_CSTORE
                    0x8598                  CSTORE
                    0x859a                  lfa_TWOSTORE
                    0x85a0                  TWOSTORE
                    0x85a2                  lfa_TWOTOR
                    0x85a8                  TWOTOR
                    0x85b8                  lfa_TWORFROM
                    0x85be                  TWORFROM
                    0x85ce                  lfa_TWORFETCH
                    0x85d4                  TWORFETCH
                    0x85e8                  lfa_CELLPLUS
                    0x85f0                  CELLPLUS
                    0x85f2                  lfa_CELLS
                    0x85fa                  CELLS
                    0x85fc                  lfa_DOI
                    0x8600                  DOI
                    0x8602                  lfa_DOL
                    0x8606                  DOL
                    0x8608                  lfa_DOJ
                    0x860c                  DOJ
                    0x860e                  lfa_UNLOOP
                    0x8618                  UNLOOP
                    0x861a                  lfa_EXECUTE
                    0x8624                  EXECUTE
                    0x8626                  lfa_FETCHEXEC
                    0x862e                  FETCHEXEC
                    0x8630                  lfa_VEXEC
                    0x8638                  VEXEC
                    0x863a                  lfa_CALL
                    0x8642                  CALL
                    0x8644                  IMMED
                    0x8646                  HIDDEN
                    0x8648                  NMARK
                    0x864a                  LENMASK
                    0x864c                  lfa_TIBSIZE
                    0x8656                  TIBSIZE
                    0x8658                  lfa_PADSIZE
                    0x8662                  PADSIZE
                    0x8664                  lfa_STATE
                    0x866c                  STATE
                    0x8670                  lfa_PAD
                    0x8676                  PAD
                    0x867a                  lfa_TIB
                    0x8680                  TIB
                    0x8684                  lfa_PASTE
                    0x868c                  PASTE
                    0x8690                  lfa_TOIN
                    0x8696                  TOIN
                    0x869a                  lfa_HP
                    0x86a0                  HP
                    0x86a4                  lfa_WORDS
                    0x86ac                  WORDS
                    0x86f6                  lfa_ADRTOIN
                    0x8700                  ADRTOIN
                    0x8718                  lfa_PARSE
                    0x8720                  PARSE
                    0x8746                  lfa_TOCOUNTED
                    0x8752                  TOCOUNTED
                    0x8760                  lfa_PARSENAME
                    0x876e                  PARSENAME
                    0x8770                  lfa_WORD
                    0x8778                  WORD
                    0x8796                  lfa_FIND
                    0x879e                  FIND
                    0x87a0                  lfa_ACCEPT
                    0x87aa                  ACCEPT
                    0x886a                  lfa_COUNT
                    0x8872                  COUNT
                    0x8880                  lfa_INTERPRET
                    0x888c                  INTERPRET
                    0x88e4                  lfa_EVAL
                    0x88f0                  EVAL
                    0x8930                  OK
                    0x8956                  lfa_ABORT
                    0x895e                  ABORT
                    0x8980                  QABORT
                    0x8996                  lfa_ABORTQUOTE
                    0x89a0                  ABORTQUOTE
                    0x89aa                  lfa_CLIP
                    0x89b2                  CLIP
                    0x89ce                  lfa_GETCLIP
                    0x89d8                  GETCLIP
                    0x89ee                  REPL
                    0x8a14                  lfa_QUIT
                    0x8a1c                  QUIT
                    0x8a2c                  lfa_HERE
                    0x8a34                  HERE
                    0x8a3c                  lfa_ALIGN
                    0x8a44                  ALIGN
                    0x8a5e                  lfa_ALIGNED
                    0x8a68                  ALIGNED
                    0x8a6a                  lfa_SOURCE
                    0x8a74                  SOURCE
                    0x8a76                  lfa_SRCSTORE
                    0x8a80                  SRCSTORE
                    0x8a82                  lfa_NFATOLFA
                    0x8a8c                  NFATOLFA
                    0x8a96                  lfa_NFATOCFA
                    0x8aa0                  NFATOCFA
                    0x8ab2                  lfa_TOBODY
                    0x8aba                  TOBODY
                    0x8ad0                  lfa_CFATONFA
                    0x8ada                  CFATONFA
                    0x8b04                  lfa_QEMPTY
                    0x8b0e                  QEMPTY
                    0x8b18                  lfa_IMMEDIATE
                    0x8b24                  IMMEDIATE
                    0x8b3e                  lfa_HIDE
                    0x8b46                  HIDE
                    0x8b60                  NAMEMARK
                    0x8b7a                  lfa_REVEAL
                    0x8b84                  REVEAL
                    0x8ba0                  lfa_ALLOT
                    0x8ba8                  ALLOT
                    0x8bb0                  lfa_COMMA
                    0x8bb4                  COMMA
                    0x8bc2                  lfa_CCOMMA
                    0x8bc8                  CCOMMA
                    0x8bd6                  lfa_TICK
                    0x8bda                  TICK
                    0x8c06                  lfa_COMPILETICK
                    0x8c0c                  COMPILETICK
                    0x8c1a                  MARKADDR
                    0x8c20                  BACKJUMP
                    0x8c2a                  MARKSLOT
                    0x8c36                  FOREJUMP
                    0x8c46                  CFA_COMMA
                    0x8c56                  lfa_LBRACKET
                    0x8c5a                  LBRACKET
                    0x8c66                  lfa_RBRACKET
                    0x8c6a                  RBRACKET
                    0x8c76                  lfa_QWORD
                    0x8c7e                  QWORD
                    0x8c9c                  lfa_POSTONE
                    0x8ca8                  POSTONE
                    0x8cc4                  lfa_LITERAL
                    0x8cce                  LITERAL
                    0x8ce0                  DOSTR
                    0x8cf6                  STRQUOTE
                    0x8cfe                  RT_CQUOTE
                    0x8d04                  DOTSTR
                    0x8d0e                  SLIT
                    0x8d1a                  STRCOMPILE
                    0x8d28                  lfa_SQUOTE
                    0x8d2e                  SQUOTE
                    0x8d3a                  lfa_CQUOTE
                    0x8d40                  CQUOTE
                    0x8d4c                  lfa_DOTQUOTE
                    0x8d52                  DOTQUOTE
                    0x8d6a                  lfa_RECURSE
                    0x8d74                  RECURSE
                    0x8d82                  lfa_DO
                    0x8d88                  DO
                    0x8d9c                  lfa_QDO
                    0x8da2                  QDO
                    0x8dbe                  lfa_LEAVE
                    0x8dc6                  LEAVE
                    0x8dd8                  FIXLEAVE
                    0x8dfa                  lfa_LOOP
                    0x8e02                  LOOP
                    0x8e0e                  lfa_PLUSLOOP
                    0x8e16                  PLUSLOOP
                    0x8e22                  lfa_BEGIN
                    0x8e2a                  BEGIN
                    0x8e32                  lfa_AGAIN
                    0x8e3a                  AGAIN
                    0x8e46                  lfa_UNTIL
                    0x8e4e                  UNTIL
                    0x8e5a                  lfa_REPEAT
                    0x8e64                  REPEAT
                    0x8e72                  lfa_WHILE
                    0x8e7a                  WHILE
                    0x8e88                  lfa_IIF
                    0x8e8e                  IIF
                    0x8e9a                  lfa_THEN
                    0x8ea2                  THEN
                    0x8eaa                  lfa_ELSE
                    0x8eb2                  ELSE
                    0x8ec2                  lfa_CASE
                    0x8eca                  CASE
                    0x8ed6                  lfa_OF
                    0x8edc                  OF
                    0x8ef4                  lfa_ENDOF
                    0x8efc                  ENDOF
                    0x8f0c                  lfa_ENDCASE
                    0x8f16                  ENDCASE
                    0x8f2e                  lfa_QCOMPILE
                    0x8f3a                  QCOMPILE
                    0x8f6c                  lfa_QNAME
                    0x8f74                  QNAME
                    0x8f88                  lfa_COLON_NO_NAME
                    0x8f92                  COLON_NO_NAME
                    0x8f9e                  EXITCOMMA
                    0x8fa8                  lfa_HEADER
                    0x8fb2                  HEADER
                    0x8fdc                  lfa_FORGET
                    0x8fe6                  FORGET
                    0x9022                  lfa_MARKER
                    0x902c                  MARKER
                    0x9046                  RT_MARKER
                    0x905a                  lfa_COLON
                    0x905e                  COLON
                    0x906a                  NOP
                    0x906e                  lfa_CREATE
                    0x9078                  CREATE
                    0x908a                  RT_DOES
                    0x90a2                  lfa_DOESTO
                    0x90aa                  DOESTO
                    0x90c4                  lfa_SEMICOLON
                    0x90c8                  SEMICOLON
                    0x90d4                  lfa_VARIABLE
                    0x90e0                  VARIABLE
                    0x90ec                  lfa_CONSTANT
                    0x90f8                  CONSTANT
                    0x9108                  NOINIT
                    0x912c                  DEFEREXEC
                    0x9134                  lfa_DEFER
                    0x913c                  DEFER
                    0x914a                  lfa_DEFERSTORE
                    0x9154                  DEFERSTORE
                    0x915c                  lfa_DEFERFETCH
                    0x9166                  DEFERFETCH
                    0x916e                  lfa_IS
                    0x9174                  IS
                    0x917e                  lfa_ACTIONOF
                    0x918a                  ACTIONOF
                    0x9194                  lfa_EFETCH
                    0x919a                  EFETCH
                    0x919c                  lfa_ECFETCH
                    0x91a2                  ECFETCH
                    0x91a4                  lfa_ETBLFETCH
                    0x91ac                  ETBLFETCH
                    0x91ae                  lfa_MSB
                    0x91b4                  MSB
                    0x91b6                  lfa_MAXINT
                    0x91c0                  MAXINT
                    0x91c2                  lfa_MININT
                    0x91cc                  MININT
                    0x91ce                  lfa_HEX
                    0x91d4                  HEX
                    0x91e0                  lfa_DECIMAL
                    0x91ea                  DECIMAL
                    0x91f6                  lfa_PLUS
                    0x91fa                  PLUS
                    0x91fc                  lfa_MINUS
                    0x9200                  MINUS
                    0x9202                  lfa_ONEPLUS
                    0x9208                  ONEPLUS
                    0x920a                  lfa_TWOPLUS
                    0x9210                  TWOPLUS
                    0x9212                  lfa_ONEMINUS
                    0x9218                  ONEMINUS
                    0x921a                  lfa_TWOMINUS
                    0x9220                  TWOMINUS
                    0x9222                  lfa_TWOSTAR
                    0x9228                  TWOSTAR
                    0x922a                  lfa_TWOSLASH
                    0x9230                  TWOSLASH
                    0x9232                  lfa_LSHIFT
                    0x923c                  LSHIFT
                    0x923e                  lfa_RSHIFT
                    0x9248                  RSHIFT
                    0x924a                  lfa_PLUSSTORE
                    0x9250                  PLUSSTORE
                    0x9252                  lfa_DPLUS
                    0x9258                  DPLUS
                    0x925a                  lfa_DMINUS
                    0x9260                  DMINUS
                    0x9262                  lfa_MPLUS
                    0x9268                  MPLUS
                    0x926a                  lfa_STAR
                    0x926e                  STAR
                    0x9270                  lfa_MSTAR
                    0x9276                  MSTAR
                    0x9278                  lfa_UMSTAR
                    0x927e                  UMSTAR
                    0x9280                  lfa_UDSTAR
                    0x9286                  UDSTAR
                    0x9288                  lfa_UDSTARD
                    0x9290                  UDSTARD
                    0x92ae                  lfa_SLASH
                    0x92b2                  SLASH
                    0x92b4                  lfa_MOD
                    0x92ba                  MOD
                    0x92bc                  lfa_STARSLASH
                    0x92c2                  STARSLASH
                    0x92c4                  lfa_STARSLASHMOD
                    0x92cc                  STARSLASHMOD
                    0x92ce                  lfa_SLASHMOD
                    0x92d6                  SLASHMOD
                    0x92d8                  lfa_UMSLASHMOD
                    0x92e2                  UMSLASHMOD
                    0x92e4                  lfa_UDSLASHMOD
                    0x92ee                  UDSLASHMOD
                    0x92f0                  lfa_MAX
                    0x92f6                  MAX
                    0x92f8                  lfa_MIN
                    0x92fe                  MIN
                    0x9300                  lfa_UMAX
                    0x9308                  UMAX
                    0x930a                  lfa_UMIN
                    0x9312                  UMIN
                    0x9314                  lfa_WITHIN
                    0x931e                  WITHIN
                    0x9320                  lfa_EVEN
                    0x9328                  EVEN
                    0x932a                  lfa_ODD
                    0x9330                  ODD
                    0x9332                  lfa_ABS
                    0x9338                  ABS
                    0x933a                  lfa_DABS
                    0x9342                  DABS
                    0x9344                  lfa_STOD
                    0x934a                  STOD
                    0x934c                  lfa_QNEGATE
                    0x9356                  QNEGATE
                    0x9358                  lfa_SMSLASHREM
                    0x9362                  SMSLASHREM
                    0x9386                  lfa_FMSLASHMOD
                    0x9390                  FMSLASHMOD
                    0x93cc                  lfa_EVARPLUS
                    0x93d4                  EVARPLUS
                    0x93e2                  lfa_EVARMINUS
                    0x93ea                  EVARMINUS
                    0x93f8                  lfa_UDREL
                    0x9400                  UDREL
                    0x9402                  lfa_NEGATE
                    0x940c                  NEGATE
                    0x940e                  lfa_DNEGATE
                    0x9418                  DNEGATE
                    0x941a                  lfa_INVERT
                    0x9424                  INVERT
                    0x9426                  lfa_DINVERT
                    0x9430                  DINVERT
                    0x9432                  lfa_BITMASK
                    0x943c                  BITMASK
                    0x943e                  lfa_AND
                    0x9444                  AND
                    0x9446                  lfa_OR
                    0x944c                  OR
                    0x944e                  lfa_XOR
                    0x9454                  XOR
                    0x9456                  lfa_NOT
                    0x945c                  NOT
                    0x945e                  lfa_ZEROEQ
                    0x9464                  ZEROEQ
                    0x9466                  lfa_ZERODIFF
                    0x946c                  ZERODIFF
                    0x946e                  lfa_ZEROLT
                    0x9474                  ZEROLT
                    0x9476                  lfa_ZEROGT
                    0x947c                  ZEROGT
                    0x947e                  lfa_EQUAL
                    0x9482                  EQUAL
                    0x9484                  lfa_NOTEQ
                    0x948a                  NOTEQ
                    0x948c                  lfa_LESS
                    0x9490                  LESS
                    0x9492                  lfa_GREATER
                    0x9496                  GREATER
                    0x9498                  lfa_ULESS
                    0x949e                  ULESS
                    0x94a0                  lfa_UGREATER
                    0x94a6                  UGREATER
                    0x94a8                  lfa_SCRBUF
                    0x94b2                  SCRBUF
                    0x94b4                  lfa_HTAB
                    0x94bc                  HTAB
                    0x94be                  TVOUT_INIT
                    0x94c0                  lfa_VIDEO
                    0x94c8                  VIDEO
                    0x94ca                  LCINIT
                    0x94e2                  LCBSLASHW
                    0x94e4                  LCWHITELN
                    0x9500                  lfa_CURENBL
                    0x950a                  CURENBL
                    0x950c                  LCCLS
                    0x950e                  lfa_SCRLUP
                    0x951a                  SCRLUP
                    0x951c                  lfa_SCRLDN
                    0x952a                  SCRLDN
                    0x952c                  lfa_GETX
                    0x9534                  GETX
                    0x9536                  lfa_GETY
                    0x953e                  GETY
                    0x9540                  lfa_SETX
                    0x9548                  SETX
                    0x954a                  lfa_SETY
                    0x9552                  SETY
                    0x9554                  lfa_LNADR
                    0x955c                  LNADR
                    0x956c                  lfa_CURADR
                    0x9576                  CURADR
                    0x9578                  LCATXY
                    0x9580                  LCXYQ
                    0x9588                  lfa_SCRCHAR
                    0x9594                  SCRCHAR
                    0x9596                  lfa_CHRTOSCR
                    0x95a0                  CHRTOSCR
                    0x95a2                  LCLEFT
                    0x95a4                  LCRIGHT
                    0x95a6                  LCHOME
                    0x95a8                  LCEND
                    0x95e8                  LCUP
                    0x95ea                  LCDOWN
                    0x95ec                  LCTOP
                    0x95f8                  LCBOTTOM
                    0x9606                  lfa_TGLCHAR
                    0x9610                  TGLCHAR
                    0x9612                  lfa_PUTC
                    0x961a                  PUTC
                    0x961c                  LCCRLF
                    0x961e                  LCTAB
                    0x963a                  LCDEL
                    0x965a                  LCINSRT
                    0x969c                  LCBACKDEL
                    0x96aa                  LCDELLN
                    0x96ac                  LCDELEOL
                    0x96c0                  LCRMVLN
                    0x96fc                  LCINSRTLN
                    0x971e                  LCEMITQ
                    0x9720                  SERIAL_INIT
                    0x9722                  lfa_SERENBL
                    0x972c                  SERENBL
                    0x972e                  lfa_B2400
                    0x9736                  B2400
                    0x9738                  lfa_B4800
                    0x9740                  B4800
                    0x9742                  lfa_B9600
                    0x974a                  B9600
                    0x974c                  lfa_B19200
                    0x9756                  B19200
                    0x9758                  lfa_B38400
                    0x9762                  B38400
                    0x9764                  lfa_B57600
                    0x976e                  B57600
                    0x9770                  lfa_B115200
                    0x977a                  B115200
                    0x977c                  lfa_BAUD
                    0x9784                  BAUD
                    0x9786                  lfa_SPUTC
                    0x978e                  SPUTC
                    0x9790                  lfa_SGETC
                    0x9798                  SGETC
                    0x979a                  lfa_SREADYQ
                    0x97a4                  SREADYQ
                    0x97a6                  lfa_SGETCQ
                    0x97b0                  SGETCQ
                    0x97b2                  STORE_INIT
                    0x97b4                  XBLKTOADR
                    0x97c0                  lfa_RAMTOXR
                    0x97ca                  RAMTOXR
                    0x97cc                  XWRITE
                    0x97d8                  lfa_XRTORAM
                    0x97e2                  XRTORAM
                    0x97e4                  XREAD
                    0x97f0                  XBLKCOUNT
                    0x97f2                  XVALIDQ
                    0x9802                  lfa_QWIP
                    0x980a                  QWIP
                    0x980c                  lfa_WWIP
                    0x9814                  WWIP
                    0x981e                  EEBLKTOADR
                    0x982a                  lfa_RAMTOEE
                    0x9834                  RAMTOEE
                    0x9836                  lfa_EETORAM
                    0x9840                  EETORAM
                    0x9842                  EEREAD
                    0x984e                  lfa_EPAGE
                    0x9856                  EPAGE
                    0x9858                  lfa_ESECTOR
                    0x9862                  ESECTOR
                    0x9864                  lfa_EALL
                    0x986c                  EALL
                    0x986e                  lfa_EERASE
                    0x9878                  EERASE
                    0x987a                  EEWRITE
                    0x98a6                  EEBLKCOUNT
                    0x98a8                  EEVALIDQ
                    0x98b8                  lfa_DEVID
                    0x98c0                  DEVID
                    0x98c6                  lfa_BLKREAD
                    0x98d2                  BLKREAD
                    0x98dc                  lfa_BLKWRITE
                    0x98e8                  BLKWRITE
                    0x98f2                  lfa_BLKTOADR
                    0x98fc                  BLKTOADR
                    0x9906                  lfa_BLKVALIDQ
                    0x9914                  BLKVALIDQ
                    0x991e                  lfa_XRAM
                    0x9926                  XRAM
                    0x9932                  lfa_EEPROM
                    0x993c                  EEPROM
                    0x9948                  KBD_INIT
                    0x994a                  KBD_RESET
                    0x994c                  LCEKEYQ
                    0x994e                  PEEK_KEY
                    0x9950                  GETKEY
                    0x9952                  LCEKEY
                    0x9954                  LCFILTER
                    0x9956                  lfa_QPRTCHAR
                    0x9962                  QPRTCHAR
                    0x9982                  LCKEYQ
                    0x99a2                  LCKEY
                    0x99b6                  CPOS_STORE
                    0x99b8                  CPOS_FETCH
                    0x99ba                  COLON1
                    0x99bc                  INC_COLON
                    0x99be                  DEC_COLON
                    0x99c0                  INC_LINE
                    0x99c2                  VTINIT
                    0x99d6                  lfa_XON
                    0x99dc                  XON
                    0x99e6                  lfa_XOFF
                    0x99ee                  XOFF
                    0x9a02                  EXPECT_TILDE
                    0x9a28                  ARROWS
                    0x9a82                  ESCTOVK
                    0x9ac8                  VTEKEY
                    0x9b32                  VTFILTER
                    0x9b60                  VTKEYQ
                    0x9b7e                  VTKEY
                    0x9b8a                  VTTYPE
                    0x9ba2                  VTSNDARG
                    0x9bae                  ESCLBRAC
                    0x9bbe                  VTUP
                    0x9be0                  VTDOWN
                    0x9c02                  VTRIGHT
                    0x9c20                  VTLEFT
                    0x9c46                  VTHOME
                    0x9c50                  VTEND
                    0x9c62                  VTTOP
                    0x9c6e                  VTBOTTOM
                    0x9c7c                  VTTAB
                    0x9c98                  VTATXY
                    0x9cc2                  VTDELEOL
                    0x9cd0                  VTCLS
                    0x9ce2                  VTDEL
                    0x9cf4                  VTINSERT
                    0x9d28                  VTBACKDEL
                    0x9d52                  VTDELLN
                    0x9d6c                  VTRMVLN
                    0x9d7a                  VTINSRTLN
                    0x9d8c                  VTWHITELN
                    0x9dc0                  lfa_VTPRTINV
                    0x9dcc                  VTPRTINV
                    0x9dde                  VTDSR
                    0x9dfa                  VTGETP
                    0x9e2c                  ESCSEQQ
                    0x9e4e                  VTXYQ
                    0x9e84                  CPOS_SYNC
                    0x9e8c                  VTCRLF
                    0x9ec4                  VTPUTC
                    0x9ee8                  VTBSLASHW
                    0x9f02                  lfa_LCCONS
                    0x9f0c                  LCCONS
                    0x9f44                  lfa_VTCONS
                    0x9f4e                  VTCONS
                    0x9f86                  lfa_SYSCONS
                    0x9f90                  SYSCONS
                    0x9f94                  lfa_LOCAL
                    0x9f9c                  LOCAL
                    0x9fa6                  lfa_REMOTE
                    0x9fb0                  REMOTE
                    0x9fba                  CONSOLE
                    0x9fc2                  lfa_ISLOCAL
                    0x9fcc                  ISLOCAL
                    0x9fd8                  CONSEXEC
                    0x9fe4                  lfa_KEY
                    0x9fea                  KEY
                    0x9ff4                  lfa_KEYQ
                    0x9ffc                  KEYQ
                    0xa006                  lfa_EKEY
                    0xa00e                  EKEY
                    0xa018                  lfa_EKEYQ
                    0xa020                  EKEYQ
                    0xa02a                  lfa_EMIT
                    0xa032                  EMIT
                    0xa03c                  lfa_EMITQ
                    0xa044                  EMITQ
                    0xa04e                  lfa_ATXY
                    0xa056                  ATXY
                    0xa060                  lfa_SPACE
                    0xa068                  SPACE
                    0xa072                  lfa_SPACES
                    0xa07c                  SPACES
                    0xa09c                  lfa_DELLN
                    0xa0a4                  DELLN
                    0xa0ae                  lfa_RMVLN
                    0xa0b6                  RMVLN
                    0xa0c0                  lfa_INSRTLN
                    0xa0ca                  INSRTLN
                    0xa0d4                  lfa_TYPE
                    0xa0dc                  TYPE
                    0xa0f8                  lfa_ETYPE
                    0xa100                  ETYPE
                    0xa11c                  lfa_DELETE
                    0xa126                  DELETE
                    0xa130                  lfa_BACKDEL
                    0xa13a                  BACKDEL
                    0xa144                  lfa_DELEOL
                    0xa14e                  DELEOL
                    0xa158                  lfa_CR
                    0xa15e                  CR
                    0xa168                  lfa_CLS
                    0xa16e                  CLS
                    0xa178                  lfa_XYQ
                    0xa17e                  XYQ
                    0xa188                  lfa_BSLASHW
                    0xa18e                  BSLASHW
                    0xa198                  lfa_WHITELN
                    0xa1a2                  WHITELN
                    0xa1ac                  lfa_WRAP
                    0xa1b4                  WRAP
                    0xa1b6                  lfa_QWRAP
                    0xa1be                  QWRAP
                    0xa1c0                  lfa_SCROLL
                    0xa1ca                  SCROLL
                    0xa1cc                  lfa_TAB
                    0xa1d2                  TAB
                    0xa1dc                  lfa_UP
                    0xa1e2                  UP
                    0xa1ec                  lfa_DOWN
                    0xa1f4                  DOWN
                    0xa1fe                  lfa_LEFT
                    0xa206                  LEFT
                    0xa210                  lfa_RIGHT
                    0xa218                  RIGHT
                    0xa222                  lfa_HOME
                    0xa22a                  HOME
                    0xa234                  lfa_END
                    0xa23a                  END
                    0xa244                  lfa_TOP
                    0xa24a                  TOP
                    0xa254                  lfa_BOTTOM
                    0xa25e                  BOTTOM
                    0xa268                  lfa_FBUFFER
                    0xa272                  FBUFFER
                    0xa284                  lfa_FFETCH
                    0xa28a                  FFETCH
                    0xa28c                  lfa_FCFETCHL
                    0xa294                  FCFETCHL
                    0xa296                  lfa_FCFETCHH
                    0xa29e                  FCFETCHH
                    0xa2a0                  lfa_IFETCH
                    0xa2a6                  IFETCH
                    0xa2a8                  lfa_ICFETCH
                    0xa2ae                  ICFETCH
                    0xa2b0                  FADDR
                    0xa2b2                  FNEXT
                    0xa2b4                  WRITE_LATCH
                    0xa2b6                  FLASH_OP
                    0xa2b8                  lfa_QFLIMITS
                    0xa2c4                  QFLIMITS
                    0xa2ee                  lfa_ROWTOFADR
                    0xa2fa                  ROWTOFADR
                    0xa304                  lfa_FERASE
                    0xa30e                  FERASE
                    0xa33a                  lfa_RAMTOFLASH
                    0xa346                  RAMTOFLASH
                    0xa37a                  lfa_FLASHTORAM
                    0xa386                  FLASHTORAM
                    0xa3ce                  IMGHEAD
                    0xa3d0                  MAGIC
                    0xa3d2                  IMGROW
                    0xa3d4                  IMGSIGN
                    0xa3de                  IMGLATST
                    0xa3e8                  IMGDP
                    0xa3f2                  IMGSIZE
                    0xa3fc                  SETHEADER
                    0xa41e                  IMGADDR
                    0xa42a                  lfa_QIMG
                    0xa432                  QIMG
                    0xa448                  QSIZE
                    0xa450                  ERASEROWS
                    0xa482                  lfa_IMGSAVE
                    0xa48c                  IMGSAVE
                    0xa4aa                  lfa_IMGLOAD
                    0xa4b4                  IMGLOAD
                    0xa4f4                  READCSD
                    0xa4f6                  READCID
                    0xa4f8                  lfa_CARDINFO
                    0xa504                  CARDINFO
                    0xa614                  SDCR
                    0xa616                  lfa_SDCINIT
                    0xa622                  SDCINIT
                    0xa624                  lfa_SEGMENT
                    0xa62e                  SEGMENT
                    0xa630                  lfa_SEGMENTQ
                    0xa63c                  SEGMENTQ
                    0xa63e                  lfa_QSDC
                    0xa646                  QSDC
                    0xa648                  lfa_QSDCOK
                    0xa652                  QSDCOK
                    0xa660                  lfa_SDCREAD
                    0xa66a                  SDCREAD
                    0xa66c                  lfa_SDCWRITE
                    0xa678                  SDCWRITE
                    0xa67a                  lfa_SDCBLOCKS
                    0xa688                  SDCBLOCKS
                    0xa68a                  lfa_SDCSEGMENTS
                    0xa69a                  SDCSEGMENTS
                    0xa69c                  SDCVALIDQ
                    0xa6a4                  SDCBLKTOADR
                    0xa6b8                  SDCBLKREAD
                    0xa6e6                  SDCBLKWRITE
                    0xa712                  lfa_SDCARD
                    0xa71c                  SDCARD
                    0xa728                  lfa_BL
                    0xa72e                  BL
                    0xa730                  lfa_TOCHAR
                    0xa738                  TOCHAR
                    0xa73a                  lfa_CHARS
                    0xa742                  CHARS
                    0xa74c                  lfa_CHARPLUS
                    0xa754                  CHARPLUS
                    0xa75e                  lfa_CHAR
                    0xa766                  CHAR
                    0xa78c                  lfa_COMPILECHAR
                    0xa796                  COMPILECHAR
                    0xa7a4                  lfa_FILL
                    0xa7ac                  FILL
                    0xa7ae                  lfa_MINUSTRAILING
                    0xa7ba                  MINUSTRAILING
                    0xa7bc                  lfa_SLASHSTRING
                    0xa7c6                  SLASHSTRING
                    0xa7d6                  lfa_UPPER
                    0xa7de                  UPPER
                    0xa7e0                  lfa_SCAN
                    0xa7e8                  SCAN
                    0xa7ea                  lfa_SKIP
                    0xa7f2                  SKIP
                    0xa7f4                  lfa_GETLINE
                    0xa7fe                  GETLINE
                    0xa812                  lfa_MOVE
                    0xa81a                  MOVE
                    0xa81c                  lfa_CMOVE
                    0xa824                  CMOVE
                    0xa826                  lfa_CMOVETO
                    0xa830                  CMOVETO
                    0xa832                  lfa_ECFETCHPLUS
                    0xa83a                  ECFETCHPLUS
                    0xa848                  lfa_CFETCHPLUS
                    0xa84e                  CFETCHPLUS
                    0xa85c                  lfa_CSTRTORAM
                    0xa868                  CSTRTORAM
                    0xa890                  lfa_SEQUAL
                    0xa896                  SEQUAL
                    0xa8ce                  lfa_BLANK
                    0xa8d6                  BLANK
                    0xa8d8                  lfa_COMPARE
                    0xa8e2                  COMPARE
                    0xa942                  lfa_SEARCH
                    0xa94c                  SEARCH
                    0xa9a6                  lfa_SLITERAL
                    0xa9b2                  SLITERAL
                    0xa9c6                  lfa_LPAREN
                    0xa9ca                  LPAREN
                    0xa9d6                  lfa_COMMENT
                    0xa9da                  COMMENT
                    0xa9f6                  lfa_DOTPAREN
                    0xa9fc                  DOTPAREN
                    0xaa08                  lfa_DIGIT
                    0xaa10                  DIGIT
                    0xaa2a                  lfa_EXTRACT
                    0xaa34                  EXTRACT
                    0xaa3e                  lfa_LTSHARP
                    0xaa44                  LTSHARP
                    0xaa54                  lfa_HOLD
                    0xaa5c                  HOLD
                    0xaa6e                  lfa_SHARP
                    0xaa72                  SHARP
                    0xaa7e                  lfa_SHARPS
                    0xaa84                  SHARPS
                    0xaa92                  lfa_SIGN
                    0xaa9a                  SIGN
                    0xaaaa                  lfa_SHARPGT
                    0xaab0                  SHARPGT
                    0xaac6                  lfa_STR
                    0xaacc                  STR
                    0xaae0                  lfa_COLFILL
                    0xaaea                  COLFILL
                    0xab00                  lfa_DOTR
                    0xab06                  DOTR
                    0xab12                  lfa_UDOTR
                    0xab18                  UDOTR
                    0xab26                  lfa_UDOT
                    0xab2c                  UDOT
                    0xab36                  lfa_DOT
                    0xab3a                  DOT
                    0xab50                  lfa_QUESTION
                    0xab54                  QUESTION
                    0xab62                  lfa_CQUESTION
                    0xab68                  CQUESTION
                    0xab70                  lfa_UDDOT
                    0xab76                  UDDOT
                    0xab84                  lfa_DDOT
                    0xab8a                  DDOT
                    0xaba2                  lfa_DDOTR
                    0xaba8                  DDOTR
                    0xabb8                  lfa_UDDOTR
                    0xabc0                  UDDOTR
                    0xabd4                  lfa_DECIMALQ
                    0xabe0                  DECIMALQ
                    0xabfe                  lfa_TOBASE10
                    0xac08                  TOBASE10
                    0xac1c                  lfa_QDIGIT
                    0xac26                  QDIGIT
                    0xac6e                  lfa_QDOUBLE
                    0xac78                  QDOUBLE
                    0xacae                  lfa_TONUMBER
                    0xacb8                  TONUMBER
                    0xad18                  lfa_QSIGN
                    0xad20                  QSIGN
                    0xad44                  lfa_QBASE
                    0xad4c                  QBASE
                    0xada2                  lfa_QQUOTEDCHAR
                    0xadb2                  QQUOTEDCHAR
                    0xae06                  lfa_QNUMBER
                    0xae10                  QNUMBER
                    0xae72                  lfa_HEAP_INIT
                    0xae7e                  HEAP_INIT
                    0xae80                  lfa_HEAPSIZE
                    0xae8c                  HEAPSIZE
                    0xae8e                  lfa_HEAPFREE
                    0xae9a                  HEAPFREE
                    0xae9c                  FREE_BYTES_STORE
                    0xae9e                  FREELIST
                    0xaea0                  USEDLIST
                    0xaea2                  lfa_BSIZEFETCH
                    0xaeac                  BSIZEFETCH
                    0xaeb8                  BSIZESTORE
                    0xaec4                  NLNKFETCH
                    0xaed0                  PLNKFETCH
                    0xaedc                  NLNKSTORE
                    0xaee8                  PLNKSTORE
                    0xaef4                  UNLINK
                    0xaf42                  PREPEND
                    0xaf5c                  QFIT
                    0xaf66                  SMALLBLK
                    0xaf8e                  SMALLEST
                    0xafba                  CUT
                    0xb008                  lfa_MALLOC
                    0xb012                  MALLOC
                    0xb042                  QINLIST
                    0xb060                  lfa_FREE
                    0xb068                  FREE
                    0xb0ac                  lfa_BUFFERCOLON
                    0xb0b6                  BUFFERCOLON
                    0xb0c8                  lfa_BLK
                    0xb0ce                  BLK
                    0xb0d0                  lfa_SCR
                    0xb0d6                  SCR
                    0xb0d8                  lfa_BLKDEV
                    0xb0e2                  BLKDEV
                    0xb0e4                  BUFARRAY
                    0xb0e6                  STRUCADR
                    0xb0f4                  DATA
                    0xb100                  BLOCK_INIT
                    0xb124                  OWNQ
                    0xb14c                  BUFFEREDQ
                    0xb17a                  NOTUSED
                    0xb1a6                  OLDEST
                    0xb1e4                  UPDATEDFETCH
                    0xb1f0                  BLKDEVFETCH
                    0xb1f8                  DEVADR
                    0xb212                  FIELDS
                    0xb232                  UPDATE
                    0xb25a                  NOUPDATE
                    0xb26a                  DATAOUT
                    0xb28c                  TODATA
                    0xb2a2                  ASSIGN
                    0xb2ee                  lfa_BUFFER
                    0xb2f8                  BUFFER
                    0xb30c                  lfa_BLOCK
                    0xb314                  BLOCK
                    0xb320                  lfa_TEXTBLOCK
                    0xb32e                  TEXTBLOCK
                    0xb37a                  lfa_LOAD
                    0xb382                  LOAD
                    0xb39c                  lfa_SAVEBUFFERS
                    0xb3ac                  SAVEBUFFERS
                    0xb3c4                  lfa_EMPTYBUFFERS
                    0xb3d4                  EMPTYBUFFERS
                    0xb3fc                  lfa_FLUSH
                    0xb404                  FLUSH
                    0xb40c                  lfa_LIST
                    0xb414                  LIST
                    0xb456                  lfa_THRU
                    0xb45e                  THRU
                    0xb470                  lfa_RPBREAK
                    0xb47a                  RPBREAK
                    0xb47e                  lfa_DBGEN
                    0xb486                  DBGEN
                    0xb48a                  lfa_QDSP
                    0xb492                  QDSP
                    0xb494                  lfa_DOTS
                    0xb49a                  DOTS
                    0xb4c4                  lfa_DOTRTN
                    0xb4cc                  DOTRTN
                    0xb4fa                  lfa_DUMP
                    0xb502                  DUMP
                    0xb55a                  lfa_DEBUG
                    0xb562                  DEBUG
                    0xb56a                  lfa_BREAK
                    0xb572                  BREAK
                    0xb5a4                  lfa_RESUME
                    0xb5ae                  RESUME
                    0xb5ce                  EDITLN
                    0xb5d0                  TEXTEND
                    0xb62c                  KCASE
                    0xb63e                  lfa_SAVELINE
                    0xb64a                  SAVELINE
                    0xb65a                  lfa_RESTORELINE
                    0xb668                  RESTORELINE
                    0xb67c                  EDWHITELN
                    0xb68c                  lfa_PROMPT
                    0xb696                  PROMPT
                    0xb6a8                  lfa_MSGLINE
                    0xb6b2                  MSGLINE
                    0xb6f6                  SAVEFAILED
                    0xb71e                  SAVESUCCESS
                    0xb738                  NEXTBLOCK
                    0xb75e                  PREVBLOCK
                    0xb77c                  BLOCKQ
                    0xb7e4                  OPENBLOCK
                    0xb7f4                  COPYBLOCK
                    0xb812                  EDDEL
                    0xb820                  EDINSERTBL
                    0xb842                  EDEND
                    0xb852                  EDHOME
                    0xb860                  EDUP
                    0xb86e                  EDDOWN
                    0xb88a                  EDCRLF
                    0xb8a2                  LASTPOS
                    0xb8bc                  EDPUTC
                    0xb8d6                  EDKEY
                    0xb916                  EDBACKDEL
                    0xb92c                  EDLEFT
                    0xb93a                  EDRIGHT
                    0xb948                  EDTOP
                    0xb956                  lfa_SCRSIZE
                    0xb962                  SCRSIZE
                    0xb990                  lfa_BLKTOSCR
                    0xb99a                  BLKTOSCR
                    0xb9e2                  lfa_SCRTOBLK
                    0xb9ec                  SCRTOBLK
                    0xba48                  lfa_SAVESCREEN
                    0xba56                  SAVESCREEN
                    0xba6a                  EDTAB
                    0xba7a                  DELLN23
                    0xbaa4                  STATUSLN
                    0xbafe                  EDATXY
                    0xbb12                  EDBSLASHW
                    0xbb26                  EDINSRTLN
                    0xbb34                  EDDELLN
                    0xbb42                  EDRMVLN
                    0xbb50                  EDDELEOL
                    0xbb5e                  EDCLS
                    0xbb6c                  lfa_BLKED
                    0xbb74                  BLKED
                    0xbd20                  INFLOOP
                    0xbd22                  QAUTORUN
                    0xbd36                  QCOLD
                    0xbd42                  HARDWARE_INIT
                    0xbd60                  TICKS_INIT
                    0xbd62                  SET_CLOCK
                    0xbd64                  CLR_LOW_RAM
                    0xbd66                  CLR_RAM
                    0xbd68                  IO_LOCK
                    0xbd6a                  VARS_INIT
                    0xbd6c                  lfa_REBOOT
                    0xbd76                  REBOOT
                    0xbd78                  lfa_TICKS
                    0xbd80                  TICKS
                    0xbd82                  lfa_USEC
                    0xbd8a                  USEC
                    0xbd8c                  lfa_MS
                    0xbd92                  MS
                    0xbdbc                  lfa_LFSR
                    0xbdc4                  LFSR
                    0xbdc6                  lfa_RAND
                    0xbdce                  RAND
                    0xbdd0                  lfa_SRAND
                    0xbdd8                  SRAND
                    0xbdda                  lfa_CLEAR
                    0xbde2                  CLEAR
                    0xbdf4                  lfa_UNUSED
                    0xbdfe                  UNUSED
                    0xbe08                  SOUND_INIT
                    0xbe0a                  lfa_TONE
                    0xbe12                  TONE

__FICD            0x0557f0          0x2
 *(__FICD.sec*)
 __FICD.sec       0x0557f0          0x2 build/default/production/mcu_config_bits.o

__FPOR            0x0557f2          0x2
 *(__FPOR.sec*)
 __FPOR.sec       0x0557f2          0x2 build/default/production/mcu_config_bits.o

__FWDT            0x0557f4          0x2
 *(__FWDT.sec*)
 __FWDT.sec       0x0557f4          0x2 build/default/production/mcu_config_bits.o

__FOSC            0x0557f6          0x2
 *(__FOSC.sec*)
 __FOSC.sec       0x0557f6          0x2 build/default/production/mcu_config_bits.o

__FOSCSEL         0x0557f8          0x2
 *(__FOSCSEL.sec*)
 __FOSCSEL.sec    0x0557f8          0x2 build/default/production/mcu_config_bits.o

__FGS             0x0557fa          0x2
 *(__FGS.sec*)
 __FGS.sec        0x0557fa          0x2 FGS
                  0x0557fa                  __FGS.sec

__FUID0
 *(__FUID0.sec*)

__FUID1
 *(__FUID1.sec*)

__FUID2
 *(__FUID2.sec*)

__FUID3
 *(__FUID3.sec*)

.comment
 *(.comment)

.debug_info       0x000000         0x75
 *(.debug_info)
 .debug_info      0x000000         0x75 build/default/production/forthex.o
 *(.gnu.linkonce.wi.*)

.debug_abbrev     0x000000         0x10
 *(.debug_abbrev)
 .debug_abbrev    0x000000         0x10 build/default/production/forthex.o

.debug_line       0x000000        0xd0c
 *(.debug_line)
 .debug_line      0x000000         0x1a build/default/production/mcu_config_bits.o
 .debug_line      0x00001a        0xcd8 build/default/production/forthex.o
 .debug_line      0x000cf2         0x1a build/default/production/font.o

.debug_frame
 *(.debug_frame)

.debug_str
 *(.debug_str)

.debug_loc
 *(.debug_loc)

.debug_macinfo
 *(.debug_macinfo)

.debug_pubnames
 *(.debug_pubnames)

.debug_ranges
 *(.debug_ranges)

.debug_aranges    0x000000         0x30
 *(.debug_aranges)
 .debug_aranges
                  0x000000         0x30 build/default/production/forthex.o
                    0x0000                  WREG0 = 0x0
                    0x0000                  _WREG0 = 0x0
                    0x0002                  WREG1 = 0x2
                    0x0002                  _WREG1 = 0x2
                    0x0004                  WREG2 = 0x4
                    0x0004                  _WREG2 = 0x4
                    0x0006                  WREG3 = 0x6
                    0x0006                  _WREG3 = 0x6
                    0x0008                  WREG4 = 0x8
                    0x0008                  _WREG4 = 0x8
                    0x000a                  WREG5 = 0xa
                    0x000a                  _WREG5 = 0xa
                    0x000c                  WREG6 = 0xc
                    0x000c                  _WREG6 = 0xc
                    0x000e                  WREG7 = 0xe
                    0x000e                  _WREG7 = 0xe
                    0x0010                  WREG8 = 0x10
                    0x0010                  _WREG8 = 0x10
                    0x0012                  WREG9 = 0x12
                    0x0012                  _WREG9 = 0x12
                    0x0014                  WREG10 = 0x14
                    0x0014                  _WREG10 = 0x14
                    0x0016                  WREG11 = 0x16
                    0x0016                  _WREG11 = 0x16
                    0x0018                  WREG12 = 0x18
                    0x0018                  _WREG12 = 0x18
                    0x001a                  WREG13 = 0x1a
                    0x001a                  _WREG13 = 0x1a
                    0x001c                  WREG14 = 0x1c
                    0x001c                  _WREG14 = 0x1c
                    0x001e                  WREG15 = 0x1e
                    0x001e                  _WREG15 = 0x1e
                    0x0020                  SPLIM = 0x20
                    0x0020                  _SPLIM = 0x20
                    0x002e                  PCL = 0x2e
                    0x002e                  _PCL = 0x2e
                    0x0030                  PCH = 0x30
                    0x0030                  _PCH = 0x30
                    0x0032                  DSRPAG = 0x32
                    0x0032                  _DSRPAG = 0x32
                    0x0032                  _DSRPAGbits = 0x32
                    0x0034                  DSWPAG = 0x34
                    0x0034                  _DSWPAG = 0x34
                    0x0034                  _DSWPAGbits = 0x34
                    0x0036                  RCOUNT = 0x36
                    0x0036                  _RCOUNT = 0x36
                    0x0042                  SR = 0x42
                    0x0042                  _SR = 0x42
                    0x0042                  _SRbits = 0x42
                    0x0044                  CORCON = 0x44
                    0x0044                  _CORCON = 0x44
                    0x0044                  _CORCONbits = 0x44
                    0x0052                  DISICNT = 0x52
                    0x0052                  _DISICNT = 0x52
                    0x0054                  TBLPAG = 0x54
                    0x0054                  _TBLPAG = 0x54
                    0x0054                  _TBLPAGbits = 0x54
                    0x0058                  MSTRPR = 0x58
                    0x0058                  _MSTRPR = 0x58
                    0x0100                  TMR1 = 0x100
                    0x0100                  _TMR1 = 0x100
                    0x0102                  PR1 = 0x102
                    0x0102                  _PR1 = 0x102
                    0x0104                  T1CON = 0x104
                    0x0104                  _T1CON = 0x104
                    0x0104                  _T1CONbits = 0x104
                    0x0106                  TMR2 = 0x106
                    0x0106                  _TMR2 = 0x106
                    0x0108                  TMR3HLD = 0x108
                    0x0108                  _TMR3HLD = 0x108
                    0x010a                  TMR3 = 0x10a
                    0x010a                  _TMR3 = 0x10a
                    0x010c                  PR2 = 0x10c
                    0x010c                  _PR2 = 0x10c
                    0x010e                  PR3 = 0x10e
                    0x010e                  _PR3 = 0x10e
                    0x0110                  T2CON = 0x110
                    0x0110                  _T2CON = 0x110
                    0x0110                  _T2CONbits = 0x110
                    0x0112                  T3CON = 0x112
                    0x0112                  _T3CON = 0x112
                    0x0112                  _T3CONbits = 0x112
                    0x0114                  TMR4 = 0x114
                    0x0114                  _TMR4 = 0x114
                    0x0116                  TMR5HLD = 0x116
                    0x0116                  _TMR5HLD = 0x116
                    0x0118                  TMR5 = 0x118
                    0x0118                  _TMR5 = 0x118
                    0x011a                  PR4 = 0x11a
                    0x011a                  _PR4 = 0x11a
                    0x011c                  PR5 = 0x11c
                    0x011c                  _PR5 = 0x11c
                    0x011e                  T4CON = 0x11e
                    0x011e                  _T4CON = 0x11e
                    0x011e                  _T4CONbits = 0x11e
                    0x0120                  T5CON = 0x120
                    0x0120                  _T5CON = 0x120
                    0x0120                  _T5CONbits = 0x120
                    0x0140                  IC1CON1 = 0x140
                    0x0140                  _IC1CON1 = 0x140
                    0x0140                  _IC1CON1bits = 0x140
                    0x0142                  IC1CON2 = 0x142
                    0x0142                  _IC1CON2 = 0x142
                    0x0142                  _IC1CON2bits = 0x142
                    0x0144                  IC1BUF = 0x144
                    0x0144                  _IC1BUF = 0x144
                    0x0146                  IC1TMR = 0x146
                    0x0146                  _IC1TMR = 0x146
                    0x0148                  IC2CON1 = 0x148
                    0x0148                  _IC2CON1 = 0x148
                    0x0148                  _IC2CON1bits = 0x148
                    0x014a                  IC2CON2 = 0x14a
                    0x014a                  _IC2CON2 = 0x14a
                    0x014a                  _IC2CON2bits = 0x14a
                    0x014c                  IC2BUF = 0x14c
                    0x014c                  _IC2BUF = 0x14c
                    0x014e                  IC2TMR = 0x14e
                    0x014e                  _IC2TMR = 0x14e
                    0x0150                  IC3CON1 = 0x150
                    0x0150                  _IC3CON1 = 0x150
                    0x0150                  _IC3CON1bits = 0x150
                    0x0152                  IC3CON2 = 0x152
                    0x0152                  _IC3CON2 = 0x152
                    0x0152                  _IC3CON2bits = 0x152
                    0x0154                  IC3BUF = 0x154
                    0x0154                  _IC3BUF = 0x154
                    0x0156                  IC3TMR = 0x156
                    0x0156                  _IC3TMR = 0x156
                    0x0158                  IC4CON1 = 0x158
                    0x0158                  _IC4CON1 = 0x158
                    0x0158                  _IC4CON1bits = 0x158
                    0x015a                  IC4CON2 = 0x15a
                    0x015a                  _IC4CON2 = 0x15a
                    0x015a                  _IC4CON2bits = 0x15a
                    0x015c                  IC4BUF = 0x15c
                    0x015c                  _IC4BUF = 0x15c
                    0x015e                  IC4TMR = 0x15e
                    0x015e                  _IC4TMR = 0x15e
                    0x0200                  I2C1RCV = 0x200
                    0x0200                  _I2C1RCV = 0x200
                    0x0202                  I2C1TRN = 0x202
                    0x0202                  _I2C1TRN = 0x202
                    0x0204                  I2C1BRG = 0x204
                    0x0204                  _I2C1BRG = 0x204
                    0x0206                  I2C1CON = 0x206
                    0x0206                  _I2C1CON = 0x206
                    0x0206                  _I2C1CONbits = 0x206
                    0x0208                  I2C1STAT = 0x208
                    0x0208                  _I2C1STAT = 0x208
                    0x0208                  _I2C1STATbits = 0x208
                    0x020a                  I2C1ADD = 0x20a
                    0x020a                  _I2C1ADD = 0x20a
                    0x020c                  I2C1MSK = 0x20c
                    0x020c                  _I2C1MSK = 0x20c
                    0x0210                  I2C2RCV = 0x210
                    0x0210                  _I2C2RCV = 0x210
                    0x0212                  I2C2TRN = 0x212
                    0x0212                  _I2C2TRN = 0x212
                    0x0214                  I2C2BRG = 0x214
                    0x0214                  _I2C2BRG = 0x214
                    0x0216                  I2C2CON = 0x216
                    0x0216                  _I2C2CON = 0x216
                    0x0216                  _I2C2CONbits = 0x216
                    0x0218                  I2C2STAT = 0x218
                    0x0218                  _I2C2STAT = 0x218
                    0x0218                  _I2C2STATbits = 0x218
                    0x021a                  I2C2ADD = 0x21a
                    0x021a                  _I2C2ADD = 0x21a
                    0x021c                  I2C2MSK = 0x21c
                    0x021c                  _I2C2MSK = 0x21c
                    0x0220                  U1MODE = 0x220
                    0x0220                  _U1MODE = 0x220
                    0x0220                  _U1MODEbits = 0x220
                    0x0222                  U1STA = 0x222
                    0x0222                  _U1STA = 0x222
                    0x0222                  _U1STAbits = 0x222
                    0x0224                  U1TXREG = 0x224
                    0x0224                  _U1TXREG = 0x224
                    0x0226                  U1RXREG = 0x226
                    0x0226                  _U1RXREG = 0x226
                    0x0228                  U1BRG = 0x228
                    0x0228                  _U1BRG = 0x228
                    0x0230                  U2MODE = 0x230
                    0x0230                  _U2MODE = 0x230
                    0x0230                  _U2MODEbits = 0x230
                    0x0232                  U2STA = 0x232
                    0x0232                  _U2STA = 0x232
                    0x0232                  _U2STAbits = 0x232
                    0x0234                  U2TXREG = 0x234
                    0x0234                  _U2TXREG = 0x234
                    0x0236                  U2RXREG = 0x236
                    0x0236                  _U2RXREG = 0x236
                    0x0238                  U2BRG = 0x238
                    0x0238                  _U2BRG = 0x238
                    0x0240                  SPI1STAT = 0x240
                    0x0240                  _SPI1STAT = 0x240
                    0x0240                  _SPI1STATbits = 0x240
                    0x0242                  SPI1CON1 = 0x242
                    0x0242                  _SPI1CON1 = 0x242
                    0x0242                  _SPI1CON1bits = 0x242
                    0x0244                  SPI1CON2 = 0x244
                    0x0244                  _SPI1CON2 = 0x244
                    0x0244                  _SPI1CON2bits = 0x244
                    0x0248                  SPI1BUF = 0x248
                    0x0248                  _SPI1BUF = 0x248
                    0x0260                  SPI2STAT = 0x260
                    0x0260                  _SPI2STAT = 0x260
                    0x0260                  _SPI2STATbits = 0x260
                    0x0262                  SPI2CON1 = 0x262
                    0x0262                  _SPI2CON1 = 0x262
                    0x0262                  _SPI2CON1bits = 0x262
                    0x0264                  SPI2CON2 = 0x264
                    0x0264                  _SPI2CON2 = 0x264
                    0x0264                  _SPI2CON2bits = 0x264
                    0x0268                  SPI2BUF = 0x268
                    0x0268                  _SPI2BUF = 0x268
                    0x0300                  ADC1BUF0 = 0x300
                    0x0300                  _ADC1BUF0 = 0x300
                    0x0302                  ADC1BUF1 = 0x302
                    0x0302                  _ADC1BUF1 = 0x302
                    0x0304                  ADC1BUF2 = 0x304
                    0x0304                  _ADC1BUF2 = 0x304
                    0x0306                  ADC1BUF3 = 0x306
                    0x0306                  _ADC1BUF3 = 0x306
                    0x0308                  ADC1BUF4 = 0x308
                    0x0308                  _ADC1BUF4 = 0x308
                    0x030a                  ADC1BUF5 = 0x30a
                    0x030a                  _ADC1BUF5 = 0x30a
                    0x030c                  ADC1BUF6 = 0x30c
                    0x030c                  _ADC1BUF6 = 0x30c
                    0x030e                  ADC1BUF7 = 0x30e
                    0x030e                  _ADC1BUF7 = 0x30e
                    0x0310                  ADC1BUF8 = 0x310
                    0x0310                  _ADC1BUF8 = 0x310
                    0x0312                  ADC1BUF9 = 0x312
                    0x0312                  _ADC1BUF9 = 0x312
                    0x0314                  ADC1BUFA = 0x314
                    0x0314                  _ADC1BUFA = 0x314
                    0x0316                  ADC1BUFB = 0x316
                    0x0316                  _ADC1BUFB = 0x316
                    0x0318                  ADC1BUFC = 0x318
                    0x0318                  _ADC1BUFC = 0x318
                    0x031a                  ADC1BUFD = 0x31a
                    0x031a                  _ADC1BUFD = 0x31a
                    0x031c                  ADC1BUFE = 0x31c
                    0x031c                  _ADC1BUFE = 0x31c
                    0x031e                  ADC1BUFF = 0x31e
                    0x031e                  _ADC1BUFF = 0x31e
                    0x0320                  AD1CON1 = 0x320
                    0x0320                  _AD1CON1 = 0x320
                    0x0320                  _AD1CON1bits = 0x320
                    0x0322                  AD1CON2 = 0x322
                    0x0322                  _AD1CON2 = 0x322
                    0x0322                  _AD1CON2bits = 0x322
                    0x0324                  AD1CON3 = 0x324
                    0x0324                  _AD1CON3 = 0x324
                    0x0324                  _AD1CON3bits = 0x324
                    0x0326                  AD1CHS123 = 0x326
                    0x0326                  _AD1CHS123 = 0x326
                    0x0326                  _AD1CHS123bits = 0x326
                    0x0328                  AD1CHS0 = 0x328
                    0x0328                  _AD1CHS0 = 0x328
                    0x0328                  _AD1CHS0bits = 0x328
                    0x032e                  AD1CSSH = 0x32e
                    0x032e                  _AD1CSSH = 0x32e
                    0x032e                  _AD1CSSHbits = 0x32e
                    0x0330                  AD1CSSL = 0x330
                    0x0330                  _AD1CSSL = 0x330
                    0x0330                  _AD1CSSLbits = 0x330
                    0x0332                  AD1CON4 = 0x332
                    0x0332                  _AD1CON4 = 0x332
                    0x0332                  _AD1CON4bits = 0x332
                    0x033a                  CTMUCON1 = 0x33a
                    0x033a                  _CTMUCON1 = 0x33a
                    0x033a                  _CTMUCON1bits = 0x33a
                    0x033c                  CTMUCON2 = 0x33c
                    0x033c                  _CTMUCON2 = 0x33c
                    0x033c                  _CTMUCON2bits = 0x33c
                    0x033e                  CTMUICON = 0x33e
                    0x033e                  _CTMUICON = 0x33e
                    0x033e                  _CTMUICONbits = 0x33e
                    0x0640                  CRCCON1 = 0x640
                    0x0640                  _CRCCON1 = 0x640
                    0x0640                  _CRCCON1bits = 0x640
                    0x0642                  CRCCON2 = 0x642
                    0x0642                  _CRCCON2 = 0x642
                    0x0642                  _CRCCON2bits = 0x642
                    0x0644                  CRCXORL = 0x644
                    0x0644                  _CRCXORL = 0x644
                    0x0644                  _CRCXORLbits = 0x644
                    0x0646                  CRCXORH = 0x646
                    0x0646                  _CRCXORH = 0x646
                    0x0646                  _CRCXORHbits = 0x646
                    0x0648                  CRCDAT = 0x648
                    0x0648                  _CRCDAT = 0x648
                    0x0648                  CRCDATL = 0x648
                    0x0648                  _CRCDATL = 0x648
                    0x064a                  CRCDATH = 0x64a
                    0x064a                  _CRCDATH = 0x64a
                    0x064c                  CRCWDAT = 0x64c
                    0x064c                  _CRCWDAT = 0x64c
                    0x064c                  CRCWDATL = 0x64c
                    0x064c                  _CRCWDATL = 0x64c
                    0x064e                  CRCWDATH = 0x64e
                    0x064e                  _CRCWDATH = 0x64e
                    0x0680                  RPOR0 = 0x680
                    0x0680                  _RPOR0 = 0x680
                    0x0680                  _RPOR0bits = 0x680
                    0x0682                  RPOR1 = 0x682
                    0x0682                  _RPOR1 = 0x682
                    0x0682                  _RPOR1bits = 0x682
                    0x0684                  RPOR2 = 0x684
                    0x0684                  _RPOR2 = 0x684
                    0x0684                  _RPOR2bits = 0x684
                    0x0686                  RPOR3 = 0x686
                    0x0686                  _RPOR3 = 0x686
                    0x0686                  _RPOR3bits = 0x686
                    0x0688                  RPOR4 = 0x688
                    0x0688                  _RPOR4 = 0x688
                    0x0688                  _RPOR4bits = 0x688
                    0x06a0                  RPINR0 = 0x6a0
                    0x06a0                  _RPINR0 = 0x6a0
                    0x06a0                  _RPINR0bits = 0x6a0
                    0x06a2                  RPINR1 = 0x6a2
                    0x06a2                  _RPINR1 = 0x6a2
                    0x06a2                  _RPINR1bits = 0x6a2
                    0x06a6                  RPINR3 = 0x6a6
                    0x06a6                  _RPINR3 = 0x6a6
                    0x06a6                  _RPINR3bits = 0x6a6
                    0x06ae                  RPINR7 = 0x6ae
                    0x06ae                  _RPINR7 = 0x6ae
                    0x06ae                  _RPINR7bits = 0x6ae
                    0x06b0                  RPINR8 = 0x6b0
                    0x06b0                  _RPINR8 = 0x6b0
                    0x06b0                  _RPINR8bits = 0x6b0
                    0x06b6                  RPINR11 = 0x6b6
                    0x06b6                  _RPINR11 = 0x6b6
                    0x06b6                  _RPINR11bits = 0x6b6
                    0x06c4                  RPINR18 = 0x6c4
                    0x06c4                  _RPINR18 = 0x6c4
                    0x06c4                  _RPINR18bits = 0x6c4
                    0x06c6                  RPINR19 = 0x6c6
                    0x06c6                  _RPINR19 = 0x6c6
                    0x06c6                  _RPINR19bits = 0x6c6
                    0x06cc                  RPINR22 = 0x6cc
                    0x06cc                  _RPINR22 = 0x6cc
                    0x06cc                  _RPINR22bits = 0x6cc
                    0x06ce                  RPINR23 = 0x6ce
                    0x06ce                  _RPINR23 = 0x6ce
                    0x06ce                  _RPINR23bits = 0x6ce
                    0x0728                  NVMCON = 0x728
                    0x0728                  _NVMCON = 0x728
                    0x0728                  _NVMCONbits = 0x728
                    0x072a                  NVMADR = 0x72a
                    0x072a                  _NVMADR = 0x72a
                    0x072c                  NVMADRU = 0x72c
                    0x072c                  _NVMADRU = 0x72c
                    0x072c                  _NVMADRUbits = 0x72c
                    0x072e                  NVMKEY = 0x72e
                    0x072e                  _NVMKEY = 0x72e
                    0x0740                  RCON = 0x740
                    0x0740                  _RCON = 0x740
                    0x0740                  _RCONbits = 0x740
                    0x0742                  OSCCON = 0x742
                    0x0742                  _OSCCON = 0x742
                    0x0742                  _OSCCONbits = 0x742
                    0x0742                  OSCCONL = 0x742
                    0x0742                  _OSCCONL = 0x742
                    0x0743                  OSCCONH = 0x743
                    0x0743                  _OSCCONH = 0x743
                    0x0744                  CLKDIV = 0x744
                    0x0744                  _CLKDIV = 0x744
                    0x0744                  _CLKDIVbits = 0x744
                    0x0746                  PLLFBD = 0x746
                    0x0746                  _PLLFBD = 0x746
                    0x0746                  _PLLFBDbits = 0x746
                    0x0748                  OSCTUN = 0x748
                    0x0748                  _OSCTUN = 0x748
                    0x0748                  _OSCTUNbits = 0x748
                    0x074e                  REFOCON = 0x74e
                    0x074e                  _REFOCON = 0x74e
                    0x074e                  _REFOCONbits = 0x74e
                    0x0760                  PMD1 = 0x760
                    0x0760                  _PMD1 = 0x760
                    0x0760                  _PMD1bits = 0x760
                    0x0762                  PMD2 = 0x762
                    0x0762                  _PMD2 = 0x762
                    0x0762                  _PMD2bits = 0x762
                    0x0764                  PMD3 = 0x764
                    0x0764                  _PMD3 = 0x764
                    0x0764                  _PMD3bits = 0x764
                    0x0766                  PMD4 = 0x766
                    0x0766                  _PMD4 = 0x766
                    0x0766                  _PMD4bits = 0x766
                    0x076a                  PMD6 = 0x76a
                    0x076a                  _PMD6 = 0x76a
                    0x076c                  PMD7 = 0x76c
                    0x076c                  _PMD7 = 0x76c
                    0x076c                  _PMD7bits = 0x76c
                    0x0800                  IFS0 = 0x800
                    0x0800                  _IFS0 = 0x800
                    0x0800                  _IFS0bits = 0x800
                    0x0802                  IFS1 = 0x802
                    0x0802                  _IFS1 = 0x802
                    0x0802                  _IFS1bits = 0x802
                    0x0804                  IFS2 = 0x804
                    0x0804                  _IFS2 = 0x804
                    0x0804                  _IFS2bits = 0x804
                    0x0806                  IFS3 = 0x806
                    0x0806                  _IFS3 = 0x806
                    0x0806                  _IFS3bits = 0x806
                    0x0808                  IFS4 = 0x808
                    0x0808                  _IFS4 = 0x808
                    0x0808                  _IFS4bits = 0x808
                    0x0810                  IFS8 = 0x810
                    0x0810                  _IFS8 = 0x810
                    0x0810                  _IFS8bits = 0x810
                    0x0812                  IFS9 = 0x812
                    0x0812                  _IFS9 = 0x812
                    0x0812                  _IFS9bits = 0x812
                    0x0820                  IEC0 = 0x820
                    0x0820                  _IEC0 = 0x820
                    0x0820                  _IEC0bits = 0x820
                    0x0822                  IEC1 = 0x822
                    0x0822                  _IEC1 = 0x822
                    0x0822                  _IEC1bits = 0x822
                    0x0824                  IEC2 = 0x824
                    0x0824                  _IEC2 = 0x824
                    0x0824                  _IEC2bits = 0x824
                    0x0826                  IEC3 = 0x826
                    0x0826                  _IEC3 = 0x826
                    0x0826                  _IEC3bits = 0x826
                    0x0828                  IEC4 = 0x828
                    0x0828                  _IEC4 = 0x828
                    0x0828                  _IEC4bits = 0x828
                    0x0830                  IEC8 = 0x830
                    0x0830                  _IEC8 = 0x830
                    0x0830                  _IEC8bits = 0x830
                    0x0832                  IEC9 = 0x832
                    0x0832                  _IEC9 = 0x832
                    0x0832                  _IEC9bits = 0x832
                    0x0840                  IPC0 = 0x840
                    0x0840                  _IPC0 = 0x840
                    0x0840                  _IPC0bits = 0x840
                    0x0842                  IPC1 = 0x842
                    0x0842                  _IPC1 = 0x842
                    0x0842                  _IPC1bits = 0x842
                    0x0844                  IPC2 = 0x844
                    0x0844                  _IPC2 = 0x844
                    0x0844                  _IPC2bits = 0x844
                    0x0846                  IPC3 = 0x846
                    0x0846                  _IPC3 = 0x846
                    0x0846                  _IPC3bits = 0x846
                    0x0848                  IPC4 = 0x848
                    0x0848                  _IPC4 = 0x848
                    0x0848                  _IPC4bits = 0x848
                    0x084a                  IPC5 = 0x84a
                    0x084a                  _IPC5 = 0x84a
                    0x084a                  _IPC5bits = 0x84a
                    0x084c                  IPC6 = 0x84c
                    0x084c                  _IPC6 = 0x84c
                    0x084c                  _IPC6bits = 0x84c
                    0x084e                  IPC7 = 0x84e
                    0x084e                  _IPC7 = 0x84e
                    0x084e                  _IPC7bits = 0x84e
                    0x0850                  IPC8 = 0x850
                    0x0850                  _IPC8 = 0x850
                    0x0850                  _IPC8bits = 0x850
                    0x0852                  IPC9 = 0x852
                    0x0852                  _IPC9 = 0x852
                    0x0852                  _IPC9bits = 0x852
                    0x0858                  IPC12 = 0x858
                    0x0858                  _IPC12 = 0x858
                    0x0858                  _IPC12bits = 0x858
                    0x0860                  IPC16 = 0x860
                    0x0860                  _IPC16 = 0x860
                    0x0860                  _IPC16bits = 0x860
                    0x0866                  IPC19 = 0x866
                    0x0866                  _IPC19 = 0x866
                    0x0866                  _IPC19bits = 0x866
                    0x0886                  IPC35 = 0x886
                    0x0886                  _IPC35 = 0x886
                    0x0886                  _IPC35bits = 0x886
                    0x0888                  IPC36 = 0x888
                    0x0888                  _IPC36 = 0x888
                    0x0888                  _IPC36bits = 0x888
                    0x088a                  IPC37 = 0x88a
                    0x088a                  _IPC37 = 0x88a
                    0x088a                  _IPC37bits = 0x88a
                    0x08c0                  INTCON1 = 0x8c0
                    0x08c0                  _INTCON1 = 0x8c0
                    0x08c0                  _INTCON1bits = 0x8c0
                    0x08c2                  INTCON2 = 0x8c2
                    0x08c2                  _INTCON2 = 0x8c2
                    0x08c2                  _INTCON2bits = 0x8c2
                    0x08c4                  INTCON3 = 0x8c4
                    0x08c4                  _INTCON3 = 0x8c4
                    0x08c4                  _INTCON3bits = 0x8c4
                    0x08c6                  INTCON4 = 0x8c6
                    0x08c6                  _INTCON4 = 0x8c6
                    0x08c6                  _INTCON4bits = 0x8c6
                    0x08c8                  INTTREG = 0x8c8
                    0x08c8                  _INTTREG = 0x8c8
                    0x08c8                  _INTTREGbits = 0x8c8
                    0x0900                  OC1CON1 = 0x900
                    0x0900                  _OC1CON1 = 0x900
                    0x0900                  _OC1CON1bits = 0x900
                    0x0902                  OC1CON2 = 0x902
                    0x0902                  _OC1CON2 = 0x902
                    0x0902                  _OC1CON2bits = 0x902
                    0x0904                  OC1RS = 0x904
                    0x0904                  _OC1RS = 0x904
                    0x0906                  OC1R = 0x906
                    0x0906                  _OC1R = 0x906
                    0x0908                  OC1TMR = 0x908
                    0x0908                  _OC1TMR = 0x908
                    0x090a                  OC2CON1 = 0x90a
                    0x090a                  _OC2CON1 = 0x90a
                    0x090a                  _OC2CON1bits = 0x90a
                    0x090c                  OC2CON2 = 0x90c
                    0x090c                  _OC2CON2 = 0x90c
                    0x090c                  _OC2CON2bits = 0x90c
                    0x090e                  OC2RS = 0x90e
                    0x090e                  _OC2RS = 0x90e
                    0x0910                  OC2R = 0x910
                    0x0910                  _OC2R = 0x910
                    0x0912                  OC2TMR = 0x912
                    0x0912                  _OC2TMR = 0x912
                    0x0914                  OC3CON1 = 0x914
                    0x0914                  _OC3CON1 = 0x914
                    0x0914                  _OC3CON1bits = 0x914
                    0x0916                  OC3CON2 = 0x916
                    0x0916                  _OC3CON2 = 0x916
                    0x0916                  _OC3CON2bits = 0x916
                    0x0918                  OC3RS = 0x918
                    0x0918                  _OC3RS = 0x918
                    0x091a                  OC3R = 0x91a
                    0x091a                  _OC3R = 0x91a
                    0x091c                  OC3TMR = 0x91c
                    0x091c                  _OC3TMR = 0x91c
                    0x091e                  OC4CON1 = 0x91e
                    0x091e                  _OC4CON1 = 0x91e
                    0x091e                  _OC4CON1bits = 0x91e
                    0x0920                  OC4CON2 = 0x920
                    0x0920                  _OC4CON2 = 0x920
                    0x0920                  _OC4CON2bits = 0x920
                    0x0922                  OC4RS = 0x922
                    0x0922                  _OC4RS = 0x922
                    0x0924                  OC4R = 0x924
                    0x0924                  _OC4R = 0x924
                    0x0926                  OC4TMR = 0x926
                    0x0926                  _OC4TMR = 0x926
                    0x0a80                  CMSTAT = 0xa80
                    0x0a80                  _CMSTAT = 0xa80
                    0x0a80                  _CMSTATbits = 0xa80
                    0x0a82                  CVRCON = 0xa82
                    0x0a82                  _CVRCON = 0xa82
                    0x0a82                  _CVRCONbits = 0xa82
                    0x0a84                  CM1CON = 0xa84
                    0x0a84                  _CM1CON = 0xa84
                    0x0a84                  _CM1CONbits = 0xa84
                    0x0a86                  CM1MSKSRC = 0xa86
                    0x0a86                  _CM1MSKSRC = 0xa86
                    0x0a86                  _CM1MSKSRCbits = 0xa86
                    0x0a88                  CM1MSKCON = 0xa88
                    0x0a88                  _CM1MSKCON = 0xa88
                    0x0a88                  _CM1MSKCONbits = 0xa88
                    0x0a8a                  CM1FLTR = 0xa8a
                    0x0a8a                  _CM1FLTR = 0xa8a
                    0x0a8a                  _CM1FLTRbits = 0xa8a
                    0x0a8c                  CM2CON = 0xa8c
                    0x0a8c                  _CM2CON = 0xa8c
                    0x0a8c                  _CM2CONbits = 0xa8c
                    0x0a8e                  CM2MSKSRC = 0xa8e
                    0x0a8e                  _CM2MSKSRC = 0xa8e
                    0x0a8e                  _CM2MSKSRCbits = 0xa8e
                    0x0a90                  CM2MSKCON = 0xa90
                    0x0a90                  _CM2MSKCON = 0xa90
                    0x0a90                  _CM2MSKCONbits = 0xa90
                    0x0a92                  CM2FLTR = 0xa92
                    0x0a92                  _CM2FLTR = 0xa92
                    0x0a92                  _CM2FLTRbits = 0xa92
                    0x0a94                  CM3CON = 0xa94
                    0x0a94                  _CM3CON = 0xa94
                    0x0a94                  _CM3CONbits = 0xa94
                    0x0a96                  CM3MSKSRC = 0xa96
                    0x0a96                  _CM3MSKSRC = 0xa96
                    0x0a96                  _CM3MSKSRCbits = 0xa96
                    0x0a98                  CM3MSKCON = 0xa98
                    0x0a98                  _CM3MSKCON = 0xa98
                    0x0a98                  _CM3MSKCONbits = 0xa98
                    0x0a9a                  CM3FLTR = 0xa9a
                    0x0a9a                  _CM3FLTR = 0xa9a
                    0x0a9a                  _CM3FLTRbits = 0xa9a
                    0x0a9c                  CM4CON = 0xa9c
                    0x0a9c                  _CM4CON = 0xa9c
                    0x0a9c                  _CM4CONbits = 0xa9c
                    0x0a9e                  CM4MSKSRC = 0xa9e
                    0x0a9e                  _CM4MSKSRC = 0xa9e
                    0x0a9e                  _CM4MSKSRCbits = 0xa9e
                    0x0aa0                  CM4MSKCON = 0xaa0
                    0x0aa0                  _CM4MSKCON = 0xaa0
                    0x0aa0                  _CM4MSKCONbits = 0xaa0
                    0x0aa2                  CM4FLTR = 0xaa2
                    0x0aa2                  _CM4FLTR = 0xaa2
                    0x0aa2                  _CM4FLTRbits = 0xaa2
                    0x0ac0                  PTGCST = 0xac0
                    0x0ac0                  _PTGCST = 0xac0
                    0x0ac0                  _PTGCSTbits = 0xac0
                    0x0ac2                  PTGCON = 0xac2
                    0x0ac2                  _PTGCON = 0xac2
                    0x0ac2                  _PTGCONbits = 0xac2
                    0x0ac4                  PTGBTE = 0xac4
                    0x0ac4                  _PTGBTE = 0xac4
                    0x0ac4                  _PTGBTEbits = 0xac4
                    0x0ac6                  PTGHOLD = 0xac6
                    0x0ac6                  _PTGHOLD = 0xac6
                    0x0ac8                  PTGT0LIM = 0xac8
                    0x0ac8                  _PTGT0LIM = 0xac8
                    0x0aca                  PTGT1LIM = 0xaca
                    0x0aca                  _PTGT1LIM = 0xaca
                    0x0acc                  PTGSDLIM = 0xacc
                    0x0acc                  _PTGSDLIM = 0xacc
                    0x0ace                  PTGC0LIM = 0xace
                    0x0ace                  _PTGC0LIM = 0xace
                    0x0ad0                  PTGC1LIM = 0xad0
                    0x0ad0                  _PTGC1LIM = 0xad0
                    0x0ad2                  PTGADJ = 0xad2
                    0x0ad2                  _PTGADJ = 0xad2
                    0x0ad4                  PTGL0 = 0xad4
                    0x0ad4                  _PTGL0 = 0xad4
                    0x0ad6                  PTGQPTR = 0xad6
                    0x0ad6                  _PTGQPTR = 0xad6
                    0x0ad6                  _PTGQPTRbits = 0xad6
                    0x0ad8                  PTGQUE0 = 0xad8
                    0x0ad8                  _PTGQUE0 = 0xad8
                    0x0ad8                  _PTGQUE0bits = 0xad8
                    0x0ada                  PTGQUE1 = 0xada
                    0x0ada                  _PTGQUE1 = 0xada
                    0x0ada                  _PTGQUE1bits = 0xada
                    0x0adc                  PTGQUE2 = 0xadc
                    0x0adc                  _PTGQUE2 = 0xadc
                    0x0adc                  _PTGQUE2bits = 0xadc
                    0x0ade                  PTGQUE3 = 0xade
                    0x0ade                  _PTGQUE3 = 0xade
                    0x0ade                  _PTGQUE3bits = 0xade
                    0x0ae0                  PTGQUE4 = 0xae0
                    0x0ae0                  _PTGQUE4 = 0xae0
                    0x0ae0                  _PTGQUE4bits = 0xae0
                    0x0ae2                  PTGQUE5 = 0xae2
                    0x0ae2                  _PTGQUE5 = 0xae2
                    0x0ae2                  _PTGQUE5bits = 0xae2
                    0x0ae4                  PTGQUE6 = 0xae4
                    0x0ae4                  _PTGQUE6 = 0xae4
                    0x0ae4                  _PTGQUE6bits = 0xae4
                    0x0ae6                  PTGQUE7 = 0xae6
                    0x0ae6                  _PTGQUE7 = 0xae6
                    0x0ae6                  _PTGQUE7bits = 0xae6
                    0x0b00                  DMA0CON = 0xb00
                    0x0b00                  _DMA0CON = 0xb00
                    0x0b00                  _DMA0CONbits = 0xb00
                    0x0b02                  DMA0REQ = 0xb02
                    0x0b02                  _DMA0REQ = 0xb02
                    0x0b02                  _DMA0REQbits = 0xb02
                    0x0b04                  DMA0STAL = 0xb04
                    0x0b04                  _DMA0STAL = 0xb04
                    0x0b06                  DMA0STAH = 0xb06
                    0x0b06                  _DMA0STAH = 0xb06
                    0x0b06                  _DMA0STAHbits = 0xb06
                    0x0b08                  DMA0STBL = 0xb08
                    0x0b08                  _DMA0STBL = 0xb08
                    0x0b0a                  DMA0STBH = 0xb0a
                    0x0b0a                  _DMA0STBH = 0xb0a
                    0x0b0a                  _DMA0STBHbits = 0xb0a
                    0x0b0c                  DMA0PAD = 0xb0c
                    0x0b0c                  _DMA0PAD = 0xb0c
                    0x0b0e                  DMA0CNT = 0xb0e
                    0x0b0e                  _DMA0CNT = 0xb0e
                    0x0b0e                  _DMA0CNTbits = 0xb0e
                    0x0b10                  DMA1CON = 0xb10
                    0x0b10                  _DMA1CON = 0xb10
                    0x0b10                  _DMA1CONbits = 0xb10
                    0x0b12                  DMA1REQ = 0xb12
                    0x0b12                  _DMA1REQ = 0xb12
                    0x0b12                  _DMA1REQbits = 0xb12
                    0x0b14                  DMA1STAL = 0xb14
                    0x0b14                  _DMA1STAL = 0xb14
                    0x0b16                  DMA1STAH = 0xb16
                    0x0b16                  _DMA1STAH = 0xb16
                    0x0b16                  _DMA1STAHbits = 0xb16
                    0x0b18                  DMA1STBL = 0xb18
                    0x0b18                  _DMA1STBL = 0xb18
                    0x0b1a                  DMA1STBH = 0xb1a
                    0x0b1a                  _DMA1STBH = 0xb1a
                    0x0b1a                  _DMA1STBHbits = 0xb1a
                    0x0b1c                  DMA1PAD = 0xb1c
                    0x0b1c                  _DMA1PAD = 0xb1c
                    0x0b1e                  DMA1CNT = 0xb1e
                    0x0b1e                  _DMA1CNT = 0xb1e
                    0x0b1e                  _DMA1CNTbits = 0xb1e
                    0x0b20                  DMA2CON = 0xb20
                    0x0b20                  _DMA2CON = 0xb20
                    0x0b20                  _DMA2CONbits = 0xb20
                    0x0b22                  DMA2REQ = 0xb22
                    0x0b22                  _DMA2REQ = 0xb22
                    0x0b22                  _DMA2REQbits = 0xb22
                    0x0b24                  DMA2STAL = 0xb24
                    0x0b24                  _DMA2STAL = 0xb24
                    0x0b26                  DMA2STAH = 0xb26
                    0x0b26                  _DMA2STAH = 0xb26
                    0x0b26                  _DMA2STAHbits = 0xb26
                    0x0b28                  DMA2STBL = 0xb28
                    0x0b28                  _DMA2STBL = 0xb28
                    0x0b2a                  DMA2STBH = 0xb2a
                    0x0b2a                  _DMA2STBH = 0xb2a
                    0x0b2a                  _DMA2STBHbits = 0xb2a
                    0x0b2c                  DMA2PAD = 0xb2c
                    0x0b2c                  _DMA2PAD = 0xb2c
                    0x0b2e                  DMA2CNT = 0xb2e
                    0x0b2e                  _DMA2CNT = 0xb2e
                    0x0b2e                  _DMA2CNTbits = 0xb2e
                    0x0b30                  DMA3CON = 0xb30
                    0x0b30                  _DMA3CON = 0xb30
                    0x0b30                  _DMA3CONbits = 0xb30
                    0x0b32                  DMA3REQ = 0xb32
                    0x0b32                  _DMA3REQ = 0xb32
                    0x0b32                  _DMA3REQbits = 0xb32
                    0x0b34                  DMA3STAL = 0xb34
                    0x0b34                  _DMA3STAL = 0xb34
                    0x0b36                  DMA3STAH = 0xb36
                    0x0b36                  _DMA3STAH = 0xb36
                    0x0b36                  _DMA3STAHbits = 0xb36
                    0x0b38                  DMA3STBL = 0xb38
                    0x0b38                  _DMA3STBL = 0xb38
                    0x0b3a                  DMA3STBH = 0xb3a
                    0x0b3a                  _DMA3STBH = 0xb3a
                    0x0b3a                  _DMA3STBHbits = 0xb3a
                    0x0b3c                  DMA3PAD = 0xb3c
                    0x0b3c                  _DMA3PAD = 0xb3c
                    0x0b3e                  DMA3CNT = 0xb3e
                    0x0b3e                  _DMA3CNT = 0xb3e
                    0x0b3e                  _DMA3CNTbits = 0xb3e
                    0x0bf0                  DMAPWC = 0xbf0
                    0x0bf0                  _DMAPWC = 0xbf0
                    0x0bf0                  _DMAPWCbits = 0xbf0
                    0x0bf2                  DMARQC = 0xbf2
                    0x0bf2                  _DMARQC = 0xbf2
                    0x0bf2                  _DMARQCbits = 0xbf2
                    0x0bf4                  DMAPPS = 0xbf4
                    0x0bf4                  _DMAPPS = 0xbf4
                    0x0bf4                  _DMAPPSbits = 0xbf4
                    0x0bf6                  DMALCA = 0xbf6
                    0x0bf6                  _DMALCA = 0xbf6
                    0x0bf6                  _DMALCAbits = 0xbf6
                    0x0bf8                  DSADRL = 0xbf8
                    0x0bf8                  _DSADRL = 0xbf8
                    0x0bfa                  DSADRH = 0xbfa
                    0x0bfa                  _DSADRH = 0xbfa
                    0x0bfa                  _DSADRHbits = 0xbfa
                    0x0e00                  TRISA = 0xe00
                    0x0e00                  _TRISA = 0xe00
                    0x0e00                  _TRISAbits = 0xe00
                    0x0e02                  PORTA = 0xe02
                    0x0e02                  _PORTA = 0xe02
                    0x0e02                  _PORTAbits = 0xe02
                    0x0e04                  LATA = 0xe04
                    0x0e04                  _LATA = 0xe04
                    0x0e04                  _LATAbits = 0xe04
                    0x0e06                  ODCA = 0xe06
                    0x0e06                  _ODCA = 0xe06
                    0x0e06                  _ODCAbits = 0xe06
                    0x0e08                  CNENA = 0xe08
                    0x0e08                  _CNENA = 0xe08
                    0x0e08                  _CNENAbits = 0xe08
                    0x0e0a                  CNPUA = 0xe0a
                    0x0e0a                  _CNPUA = 0xe0a
                    0x0e0a                  _CNPUAbits = 0xe0a
                    0x0e0c                  CNPDA = 0xe0c
                    0x0e0c                  _CNPDA = 0xe0c
                    0x0e0c                  _CNPDAbits = 0xe0c
                    0x0e0e                  ANSELA = 0xe0e
                    0x0e0e                  _ANSELA = 0xe0e
                    0x0e0e                  _ANSELAbits = 0xe0e
                    0x0e10                  TRISB = 0xe10
                    0x0e10                  _TRISB = 0xe10
                    0x0e10                  _TRISBbits = 0xe10
                    0x0e12                  PORTB = 0xe12
                    0x0e12                  _PORTB = 0xe12
                    0x0e12                  _PORTBbits = 0xe12
                    0x0e14                  LATB = 0xe14
                    0x0e14                  _LATB = 0xe14
                    0x0e14                  _LATBbits = 0xe14
                    0x0e16                  ODCB = 0xe16
                    0x0e16                  _ODCB = 0xe16
                    0x0e16                  _ODCBbits = 0xe16
                    0x0e18                  CNENB = 0xe18
                    0x0e18                  _CNENB = 0xe18
                    0x0e18                  _CNENBbits = 0xe18
                    0x0e1a                  CNPUB = 0xe1a
                    0x0e1a                  _CNPUB = 0xe1a
                    0x0e1a                  _CNPUBbits = 0xe1a
                    0x0e1c                  CNPDB = 0xe1c
                    0x0e1c                  _CNPDB = 0xe1c
                    0x0e1c                  _CNPDBbits = 0xe1c
                    0x0e1e                  ANSELB = 0xe1e
                    0x0e1e                  _ANSELB = 0xe1e
                    0x0e1e                  _ANSELBbits = 0xe1e
                    0x0fa0                  _APPO = 0xfa0
                    0x0fa0                  __APPO = 0xfa0
                    0x0fa2                  _APPIN = 0xfa2
                    0x0fa2                  __APPIN = 0xfa2
                    0x0fa4                  APPS = 0xfa4
                    0x0fa4                  _APPS = 0xfa4
                    0x0fa4                  _APPSbits = 0xfa4
                    0x0fa6                  STROUTL = 0xfa6
                    0x0fa6                  _STROUTL = 0xfa6
                    0x0fa8                  STROUTH = 0xfa8
                    0x0fa8                  _STROUTH = 0xfa8
                    0x0faa                  STROVCNT = 0xfaa
                    0x0faa                  _STROVCNT = 0xfaa
                    0x0ff0                  JDATAH = 0xff0
                    0x0ff0                  _JDATAH = 0xff0
                    0x0ff2                  JDATAL = 0xff2
                    0x0ff2                  _JDATAL = 0xff2
                    0x0144                  IC1 = 0x144
                    0x0144                  _IC1 = 0x144
                    0x014c                  IC2 = 0x14c
                    0x014c                  _IC2 = 0x14c
                    0x0154                  IC3 = 0x154
                    0x0154                  _IC3 = 0x154
                    0x015c                  IC4 = 0x15c
                    0x015c                  _IC4 = 0x15c
                    0x0904                  OC1 = 0x904
                    0x0904                  _OC1 = 0x904
                    0x090e                  OC2 = 0x90e
                    0x090e                  _OC2 = 0x90e
                    0x0918                  OC3 = 0x918
                    0x0918                  _OC3 = 0x918
                    0x0922                  OC4 = 0x922
                    0x0922                  _OC4 = 0x922
                    0x0240                  SPI1 = 0x240
                    0x0240                  _SPI1 = 0x240
                    0x0260                  SPI2 = 0x260
                    0x0260                  _SPI2 = 0x260
                    0x0220                  UART1 = 0x220
                    0x0220                  _UART1 = 0x220
                    0x0230                  UART2 = 0x230
                    0x0230                  _UART2 = 0x230
START GROUP
LOAD /opt/microchip/xc16/v1.26/bin/bin/../../lib/liblega-pic30-elf.a
LOAD /opt/microchip/xc16/v1.26/bin/bin/../../lib/libm-elf.a
LOAD /opt/microchip/xc16/v1.26/bin/bin/../../lib/liblega-c-elf.a
END GROUP
OUTPUT(dist/default/production/ForthEx.X.production.elf elf32-pic30)
LOAD FGS

.user_dict.bss      0x1300       0x6d00
 .user_dict.bss
                    0x1300       0x6d00 build/default/production/forthex.o
                    0x1300                  _user_dict

.heap.bss           0x8000       0x4a00
 .heap.bss          0x8000       0x4a00 build/default/production/forthex.o
                    0x8000                  _heap

.tvout.buffer.bss
                    0xca00        0x600
 .tvout.buffer.bss
                    0xca00        0x600 build/default/production/forthex.o
                    0xca00                  _video_buffer

.return.stack.bss
                    0x1000         0x80
 .return.stack.bss
                    0x1000         0x80 build/default/production/forthex.o
                    0x1000                  rstack

.param.stack.bss
                    0x1080         0x40
 .param.stack.bss
                    0x1080         0x40 build/default/production/forthex.o
                    0x1080                  pstack

.control.stack.bss
                    0x10c0         0x40
 .control.stack.bss
                    0x10c0         0x40 build/default/production/forthex.o
                    0x10c0                  cstack

.boot.bss           0x12f8          0x8
 .boot.bss          0x12f8          0x8 build/default/production/forthex.o
                    0x12f8                  _boot_header

.paste.bss          0x1100         0x52
 .paste.bss         0x1100         0x52 build/default/production/forthex.o

.tib.bss            0x1152         0x50
 .tib.bss           0x1152         0x50 build/default/production/forthex.o
                    0x1152                  tib

.pad.bss            0x11a2         0x50
 .pad.bss           0x11a2         0x50 build/default/production/forthex.o
                    0x11a2                  pad

.hardware.bss       0x11f2         0x36
 .hardware.bss      0x11f2         0x36 build/default/production/forthex.o
                    0x121c                  systicks
                    0x121e                  seed
                    0x1222                  fwarm

.serial.bss         0x1228         0x26
 .serial.bss        0x1228         0x26 build/default/production/forthex.o

.keyboard.bss       0x124e         0x24
 .keyboard.bss      0x124e         0x24 build/default/production/forthex.o
                    0x124e                  kbd_queue
                    0x126e                  kbd_head

.sys_vars.bss       0x1272         0x20
 .sys_vars.bss      0x1272         0x20 build/default/production/forthex.o
                    0x1272                  _SYS_VARS
                    0x1272                  csp
                    0x1274                  _SYSLATEST
                    0x1276                  _LATEST
                    0x1278                  _TIB
                    0x127a                  _PAD
                    0x127c                  _PASTE
                    0x127e                  _TICKSOURCE
                    0x1280                  _CNTSOURCE
                    0x1282                  _DP
                    0x1284                  _BASE
                    0x1286                  _STATE
                    0x1288                  _TOIN
                    0x128a                  _HP

.sdc.bss            0x1292         0x1a
 .sdc.bss           0x1292         0x1a build/default/production/forthex.o
                    0x1292                  sdc_status

.tvout.bss          0x12ac          0xc
 .tvout.bss         0x12ac          0xc build/default/production/forthex.o
                    0x12b0                  xpos
                    0x12b1                  ypos
                    0x12b2                  cursor_dly
                    0x12b4                  cursor_sema
                    0x12b5                  fcursor

.heap_vars.bss      0x12b8          0x6
 .heap_vars.bss
                    0x12b8          0x6 build/default/production/forthex.o

.vt102.bss          0x12be          0x2
 .vt102.bss         0x12be          0x2 build/default/production/forthex.o

.sound.bss          0x12c0          0x2
 .sound.bss         0x12c0          0x2 build/default/production/forthex.o
                    0x12c0                  tone_len

.start.text       0x000200         0x2e
 .start.text      0x000200         0x2e build/default/production/forthex.o
                  0x000200                  __reset

.vars_init          0xf800         0x22 address de chargement 0x007800  
 .vars_init         0xf800         0x22 build/default/production/forthex.o
                    0xf800                  vars_count

.ivt._T2Interrupt
                  0x000022          0x2
 .ivt._T2Interrupt
                  0x000022          0x2 build/default/production/forthex.o

.ivt._OC2Interrupt
                  0x000020          0x2
 .ivt._OC2Interrupt
                  0x000020          0x2 build/default/production/forthex.o

.ivt._U1RXInterrupt
                  0x00002a          0x2
 .ivt._U1RXInterrupt
                  0x00002a          0x2 build/default/production/forthex.o

.ivt._U2RXInterrupt
                  0x000050          0x2
 .ivt._U2RXInterrupt
                  0x000050          0x2 build/default/production/forthex.o

.ivt._CNInterrupt
                  0x00003a          0x2
 .ivt._CNInterrupt
                  0x00003a          0x2 build/default/production/forthex.o

.ivt._MathError
                  0x00000c          0x2
 .ivt._MathError
                  0x00000c          0x2 build/default/production/forthex.o

.ivt._StackError
                  0x00000a          0x2
 .ivt._StackError
                  0x00000a          0x2 build/default/production/forthex.o

.ivt._T1Interrupt
                  0x00001a          0x2
 .ivt._T1Interrupt
                  0x00001a          0x2 build/default/production/forthex.o

.ivt._INT1Interrupt
                  0x00003c          0x2
 .ivt._INT1Interrupt
                  0x00003c          0x2 build/default/production/forthex.o

.font.const         0xbe14        0x400 address de chargement 0x003e14  
 .font.const        0xbe14        0x400 build/default/production/font.o
                    0xbe14                  _font

.str.const          0xc214         0x96 address de chargement 0x004214  
 .str.const         0xc214         0x96 build/default/production/forthex.o
                    0xc214                  _version
                    0xc221                  _math_error
                    0xc237                  _user_aborted
                    0xc250                  _stack_reset
                    0xc263                  _unknown_reset

.forth_code.text
                  0x0042aa       0x1556
 .forth_code.text
                  0x0042aa       0x1556 build/default/production/forthex.o
                  0x0042aa                  ENTER
                  0x0042b4                  DOUSER
                  0x0042c0                  DOVAR
                  0x0042ca                  DOCONST
                  0x0042d4                  code_EXIT
                  0x0042dc                  code_LIT
                  0x0042e6                  code_CLIT
                  0x0042f2                  code_BRANCH
                  0x0042fa                  code_TBRANCH
                  0x004308                  code_ZBRANCH
                  0x004316                  code_DODO
                  0x004328                  code_DOQDO
                  0x00433a                  code_DOLOOP
                  0x004354                  code_DOPLOOP
                  0x004372                  code_VERSION
                  0x00437c                  code_R0
                  0x004386                  code_S0
                  0x004390                  code_RAMEND
                  0x00439a                  code_ULIMIT
                  0x0043a4                  code_TRUE
                  0x0043ae                  code_FALSE
                  0x0043b8                  code_DP0
                  0x0043c2                  code_CELL
                  0x0043cc                  code_DUP
                  0x0043d4                  code_TWODUP
                  0x0043e0                  code_QDUP
                  0x0043ec                  code_DROP
                  0x0043f4                  code_TWODROP
                  0x0043fe                  code_RDROP
                  0x004406                  code_SWAP
                  0x004412                  code_TWOSWAP
                  0x004426                  code_ROT
                  0x004438                  code_NROT
                  0x004448                  code_OVER
                  0x004452                  code_TWOOVER
                  0x004460                  code_NIP
                  0x004468                  code_TUCK
                  0x004474                  code_TOR
                  0x00447e                  code_RFROM
                  0x004488                  code_IPFETCH
                  0x004492                  code_DEPTH
                  0x0044a0                  code_PICK
                  0x0044ae                  code_RFETCH
                  0x0044b8                  code_SPFETCH
                  0x0044c4                  code_SPSTORE
                  0x0044cc                  code_RPFETCH
                  0x0044d6                  code_RPSTORE
                  0x0044e0                  code_TOCSTK
                  0x0044ee                  code_CSTKFROM
                  0x0044fc                  code_FETCH
                  0x004504                  code_CFETCH
                  0x00450e                  code_TWOFETCH
                  0x00451a                  code_BIDFETCH
                  0x004538                  code_TBLFETCH
                  0x004548                  code_TBLSTORE
                  0x00455c                  code_STORE
                  0x004566                  code_CSTORE
                  0x004572                  code_TWOSTORE
                  0x00457e                  code_CELLPLUS
                  0x004586                  code_CELLS
                  0x004590                  code_DOI
                  0x00459a                  code_DOL
                  0x0045a4                  code_DOJ
                  0x0045ae                  code_UNLOOP
                  0x0045b8                  code_EXECUTE
                  0x0045c0                  code_FETCHEXEC
                  0x0045c4                  code_VEXEC
                  0x0045ce                  code_CALL
                  0x0045de                  code_IMMED
                  0x0045e8                  code_HIDDEN
                  0x0045f2                  code_NMARK
                  0x0045fc                  code_LENMASK
                  0x004606                  code_TIBSIZE
                  0x004610                  code_PADSIZE
                  0x00461a                  code_PARSENAME
                  0x004674                  code_FIND
                  0x0046c4                  code_ALIGNED
                  0x0046ce                  code_SOURCE
                  0x0046dc                  code_SRCSTORE
                  0x0046ea                  FETCH_EXEC
                  0x0046f4                  code_EFETCH
                  0x004702                  code_ECFETCH
                  0x004712                  code_ETBLFETCH
                  0x004728                  code_MSB
                  0x004732                  code_MAXINT
                  0x00473c                  code_MININT
                  0x004746                  code_PLUS
                  0x00474e                  code_MINUS
                  0x004758                  code_ONEPLUS
                  0x004760                  code_TWOPLUS
                  0x004768                  code_ONEMINUS
                  0x004770                  code_TWOMINUS
                  0x004778                  code_TWOSTAR
                  0x004780                  code_TWOSLASH
                  0x004788                  code_LSHIFT
                  0x0047a4                  code_RSHIFT
                  0x0047c0                  code_PLUSSTORE
                  0x0047ce                  code_DPLUS
                  0x0047e0                  code_DMINUS
                  0x0047f4                  code_MPLUS
                  0x004808                  code_STAR
                  0x004812                  code_MSTAR
                  0x00481e                  code_UMSTAR
                  0x00482a                  code_UDSTAR
                  0x00483e                  code_SLASH
                  0x00484c                  code_MOD
                  0x00485a                  code_STARSLASH
                  0x00486c                  code_STARSLASHMOD
                  0x004880                  code_SLASHMOD
                  0x004890                  code_UMSLASHMOD
                  0x0048a2                  code_UDSLASHMOD
                  0x0048be                  code_MAX
                  0x0048cc                  code_MIN
                  0x0048da                  code_UMAX
                  0x0048e8                  code_UMIN
                  0x0048f6                  code_WITHIN
                  0x004904                  code_EVEN
                  0x004912                  code_ODD
                  0x004920                  code_ABS
                  0x00492a                  code_DABS
                  0x004940                  code_STOD
                  0x004950                  code_QNEGATE
                  0x00495e                  code_UDREL
                  0x004984                  code_NEGATE
                  0x00498c                  code_DNEGATE
                  0x00499c                  code_INVERT
                  0x0049a4                  code_DINVERT
                  0x0049ae                  code_BITMASK
                  0x0049be                  code_AND
                  0x0049c6                  code_OR
                  0x0049ce                  code_XOR
                  0x0049d6                  code_NOT
                  0x0049e6                  code_ZEROEQ
                  0x0049f0                  code_ZERODIFF
                  0x004a00                  code_ZEROLT
                  0x004a0c                  code_ZEROGT
                  0x004a1c                  code_EQUAL
                  0x004a2c                  code_NOTEQ
                  0x004a3c                  code_LESS
                  0x004a4c                  code_GREATER
                  0x004a5c                  code_ULESS
                  0x004a6c                  code_UGREATER
                  0x004a7c                  code_SCRBUF
                  0x004a86                  code_HTAB
                  0x004a90                  code_TVOUT_INIT
                  0x004af8                  code_VIDEO
                  0x004b0a                  code_LCBSLASHW
                  0x004b1c                  code_CURENBL
                  0x004b38                  code_LCCLS
                  0x004b4e                  code_SCRLUP
                  0x004b58                  code_SCRLDN
                  0x004b62                  code_GETX
                  0x004b70                  code_GETY
                  0x004b7e                  code_SETX
                  0x004ba4                  code_SETY
                  0x004bca                  code_CURADR
                  0x004be0                  code_SCRCHAR
                  0x004c08                  code_CHRTOSCR
                  0x004c34                  code_LCLEFT
                  0x004c4c                  code_LCRIGHT
                  0x004c66                  code_LCHOME
                  0x004c7a                  code_LCUP
                  0x004c92                  code_LCDOWN
                  0x004cac                  code_TGLCHAR
                  0x004cc2                  code_PUTC
                  0x004d0e                  code_LCCRLF
                  0x004d32                  code_LCDELLN
                  0x004d54                  code_LCEMITQ
                  0x004d5e                  code_SERIAL_INIT
                  0x004d8a                  code_SERENBL
                  0x004da0                  code_B2400
                  0x004daa                  code_B4800
                  0x004db4                  code_B9600
                  0x004dbe                  code_B19200
                  0x004dc8                  code_B38400
                  0x004dd2                  code_B57600
                  0x004ddc                  code_B115200
                  0x004de6                  code_BAUD
                  0x004df8                  code_SPUTC
                  0x004e0c                  code_SGETC
                  0x004e44                  code_SREADYQ
                  0x004e52                  code_SGETCQ
                  0x004e60                  code_STORE_INIT
                  0x004ede                  code_RAMTOXR
                  0x004f1e                  code_XRTORAM
                  0x004f58                  code_XBLKCOUNT
                  0x004f62                  code_QWIP
                  0x004f90                  code_RAMTOEE
                  0x004fee                  code_EETORAM
                  0x00502c                  code_EPAGE
                  0x005036                  code_ESECTOR
                  0x005040                  code_EALL
                  0x00504a                  code_EERASE
                  0x0050ac                  code_EEBLKCOUNT
                  0x0050b6                  code_KBD_INIT
                  0x0050e6                  code_KBD_RESET
                  0x005100                  code_LCEKEYQ
                  0x00510e                  code_PEEK_KEY
                  0x00511e                  code_GETKEY
                  0x005134                  code_LCEKEY
                  0x005158                  code_LCFILTER
                  0x005182                  code_CPOS_STORE
                  0x005194                  code_CPOS_FETCH
                  0x0051a6                  code_COLON1
                  0x0051b0                  code_INC_COLON
                  0x0051be                  code_DEC_COLON
                  0x0051cc                  code_INC_LINE
                  0x0051da                  code_WRAP
                  0x0051ec                  code_QWRAP
                  0x0051fa                  code_SCROLL
                  0x00520c                  code_FFETCH
                  0x005226                  code_FCFETCHL
                  0x005238                  code_FCFETCHH
                  0x00524a                  code_IFETCH
                  0x005264                  code_ICFETCH
                  0x005286                  code_FADDR
                  0x005294                  code_FNEXT
                  0x0052a2                  code_WRITE_LATCH
                  0x0052ca                  code_FLASH_OP
                  0x0052f4                  code_IMGHEAD
                  0x0052fe                  code_MAGIC
                  0x005308                  code_IMGROW
                  0x005312                  code_READCSD
                  0x005326                  code_READCID
                  0x00533a                  code_SDCR
                  0x005344                  code_SDCINIT
                  0x005420                  code_SEGMENT
                  0x005432                  code_SEGMENTQ
                  0x00543c                  code_QSDC
                  0x005446                  code_SDCREAD
                  0x005492                  code_SDCWRITE
                  0x005502                  code_SDCBLOCKS
                  0x005510                  code_SDCSEGMENTS
                  0x00551a                  code_BL
                  0x005524                  code_TOCHAR
                  0x005536                  code_FILL
                  0x00554e                  code_MINUSTRAILING
                  0x00556e                  code_UPPER
                  0x005596                  code_SCAN
                  0x0055ba                  code_SKIP
                  0x0055dc                  code_MOVE
                  0x0055e4                  code_CMOVE
                  0x005604                  code_CMOVETO
                  0x005628                  code_BLANK
                  0x005640                  code_HEAP_INIT
                  0x00565a                  code_HEAPSIZE
                  0x005664                  code_HEAPFREE
                  0x00566e                  code_FREE_BYTES_STORE
                  0x005678                  code_FREELIST
                  0x005682                  code_USEDLIST
                  0x00568c                  code_BLK
                  0x005696                  code_SCR
                  0x0056a0                  code_BLKDEV
                  0x0056aa                  code_BUFARRAY
                  0x0056b4                  code_QDSP
                  0x0056d2                  code_EDITLN
                  0x0056dc                  code_INFLOOP
                  0x0056de                  code_TICKS_INIT
                  0x0056fa                  code_SET_CLOCK
                  0x00570a                  code_CLR_LOW_RAM
                  0x005716                  code_CLR_RAM
                  0x005722                  code_IO_LOCK
                  0x00572a                  code_VARS_INIT
                  0x005744                  code_REBOOT
                  0x005746                  code_TICKS
                  0x005750                  code_USEC
                  0x00576a                  code_LFSR
                  0x005782                  code_RAND
                  0x0057b2                  code_SRAND
                  0x0057c2                  code_SOUND_INIT
                  0x0057e0                  code_TONE

.text             0x005800        0x376
 .text            0x005800        0x376 build/default/production/forthex.o
                  0x005800                  cursor_blink
                  0x005810                  toggle_char
                  0x005834                  cursor_enable
                  0x005848                  cursor_disable
                  0x005856                  scroll_up
                  0x00588a                  scroll_down
                  0x005b72                  _code_end
